(dp1
S'Mycn_MA0104.1'
p2
(ipssm
pssm
p3
(dp4
S'eValue'
p5
S'0.01'
p6
sS'genes'
p7
NsS'nsites'
p8
S'100'
p9
sS'name'
p10
S'Mycn_MA0104.1'
p11
sS'matrix'
p12
(lp13
(lp14
F0
aF1
aF0
aF0
aa(lp15
F0.93548387096774188
aF0
aF0
aF0.064516129032258063
aa(lp16
F0
aF0.967741935483871
aF0
aF0.032258064516129031
aa(lp17
F0.064516129032258063
aF0.032258064516129031
aF0.90322580645161288
aF0
aa(lp18
F0
aF0.096774193548387094
aF0
aF0.90322580645161288
aa(lp19
F0
aF0
aF1
aF0
aasbsS'Mycn_MA0104.2'
p20
(ipssm
pssm
p21
(dp22
g5
S'0.01'
p23
sg7
Nsg8
S'100'
p24
sg10
S'Mycn_MA0104.2'
p25
sg12
(lp26
(lp27
F0.34931506849315069
aF0.36301369863013699
aF0.14383561643835616
aF0.14383561643835616
aa(lp28
F0.089041095890410954
aF0.38812785388127852
aF0.44748858447488582
aF0.075342465753424653
aa(lp29
F0.015981735159817351
aF0.98401826484018262
aF0
aF0
aa(lp30
F0.9452054794520548
aF0
aF0.041095890410958902
aF0.013698630136986301
aa(lp31
F0
aF0.96118721461187218
aF0.018264840182648401
aF0.020547945205479451
aa(lp32
F0.070776255707762553
aF0.0022831050228310501
aF0.92465753424657537
aF0.0022831050228310501
aa(lp33
F0.054794520547945202
aF0.22146118721461186
aF0.0045662100456621002
aF0.71917808219178081
aa(lp34
F0
aF0
aF0.93835616438356162
aF0.061643835616438353
aa(lp35
F0.061643835616438353
aF0.11187214611872145
aF0.73972602739726023
aF0.086757990867579904
aa(lp36
F0.13926940639269406
aF0.60502283105022836
aF0.091324200913242004
aF0.16438356164383561
aasbsS'FEV_MA0156.1'
p37
(ipssm
pssm
p38
(dp39
g5
S'0.01'
p40
sg7
Nsg8
S'100'
p41
sg10
S'FEV_MA0156.1'
p42
sg12
(lp43
(lp44
F0.15384615384615385
aF0.69230769230769229
aF0.076923076923076927
aF0.076923076923076927
aa(lp45
F0.69230769230769229
aF0.23076923076923078
aF0.076923076923076927
aF0
aa(lp46
F0
aF0
aF1
aF0
aa(lp47
F0
aF0
aF1
aF0
aa(lp48
F1
aF0
aF0
aF0
aa(lp49
F0.92307692307692313
aF0
aF0
aF0.076923076923076927
aa(lp50
F0.53846153846153844
aF0
aF0.46153846153846156
aF0
aa(lp51
F0
aF0
aF0
aF1
aasbsS'NFIL3_MA0025.1'
p52
(ipssm
pssm
p53
(dp54
g5
S'0.01'
p55
sg7
Nsg8
S'100'
p56
sg10
S'NFIL3_MA0025.1'
p57
sg12
(lp58
(lp59
F0.043478260869565216
aF0
aF0
aF0.95652173913043481
aa(lp60
F0
aF0
aF0.086956521739130432
aF0.91304347826086951
aa(lp61
F0.95652173913043481
aF0
aF0
aF0.043478260869565216
aa(lp62
F0
aF0.34782608695652173
aF0
aF0.65217391304347827
aa(lp63
F0.086956521739130432
aF0
aF0.91304347826086951
aF0
aa(lp64
F0
aF0
aF0
aF1
aa(lp65
F1
aF0
aF0
aF0
aa(lp66
F0.95652173913043481
aF0
aF0.043478260869565216
aF0
aa(lp67
F0
aF0.47826086956521741
aF0.17391304347826086
aF0.34782608695652173
aa(lp68
F0.30434782608695654
aF0.21739130434782608
aF0.30434782608695654
aF0.17391304347826086
aa(lp69
F0.21739130434782608
aF0.21739130434782608
aF0.13043478260869565
aF0.43478260869565216
aasbsS'Prrx2_MA0075.1'
p70
(ipssm
pssm
p71
(dp72
g5
S'0.01'
p73
sg7
Nsg8
S'100'
p74
sg10
S'Prrx2_MA0075.1'
p75
sg12
(lp76
(lp77
F0.88135593220338981
aF0.033898305084745763
aF0.067796610169491525
aF0.016949152542372881
aa(lp78
F1
aF0
aF0
aF0
aa(lp79
F0
aF0
aF0.016949152542372881
aF0.98305084745762716
aa(lp80
F0
aF0
aF0
aF1
aa(lp81
F0.98305084745762716
aF0
aF0.016949152542372881
aF0
aasbsS'TFAP2A_MA0003.1'
p82
(ipssm
pssm
p83
(dp84
g5
S'0.01'
p85
sg7
Nsg8
S'100'
p86
sg10
S'TFAP2A_MA0003.1'
p87
sg12
(lp88
(lp89
F0
aF0
aF1
aF0
aa(lp90
F0
aF1
aF0
aF0
aa(lp91
F0
aF1
aF0
aF0
aa(lp92
F0.11891891891891893
aF0.38378378378378381
aF0.24864864864864866
aF0.24864864864864866
aa(lp93
F0.10270270270270271
aF0.30810810810810813
aF0.32972972972972975
aF0.25945945945945947
aa(lp94
F0.29729729729729731
aF0.23783783783783785
aF0.36216216216216218
aF0.10270270270270271
aa(lp95
F0.2864864864864865
aF0.16216216216216217
aF0.49189189189189192
aF0.059459459459459463
aa(lp96
F0.10270270270270271
aF0.086486486486486491
aF0.74054054054054053
aF0.070270270270270274
aa(lp97
F0.048648648648648651
aF0.42162162162162165
aF0.42702702702702705
aF0.10270270270270271
aasbsS'NFE2L2_MA0150.1'
p98
(ipssm
pssm
p99
(dp100
g5
S'0.01'
p101
sg7
Nsg8
S'100'
p102
sg10
S'NFE2L2_MA0150.1'
p103
sg12
(lp104
(lp105
F0.5
aF0.050000000000000003
aF0.45000000000000001
aF0
aa(lp106
F0
aF0
aF0
aF1
aa(lp107
F0
aF0
aF0.94999999999999996
aF0.050000000000000003
aa(lp108
F1
aF0
aF0
aF0
aa(lp109
F0
aF0.84999999999999998
aF0.050000000000000003
aF0.10000000000000001
aa(lp110
F0.29999999999999999
aF0.10000000000000001
aF0.050000000000000003
aF0.55000000000000004
aa(lp111
F0.25
aF0.5
aF0.050000000000000003
aF0.20000000000000001
aa(lp112
F0.80000000000000004
aF0
aF0.10000000000000001
aF0.10000000000000001
aa(lp113
F0
aF0
aF1
aF0
aa(lp114
F0
aF1
aF0
aF0
aa(lp115
F0.75
aF0.10000000000000001
aF0.10000000000000001
aF0.050000000000000003
aasbsS'RREB1_MA0073.1'
p116
(ipssm
pssm
p117
(dp118
g5
S'0.01'
p119
sg7
Nsg8
S'100'
p120
sg10
S'RREB1_MA0073.1'
p121
sg12
(lp122
(lp123
F0.27272727272727271
aF0.72727272727272729
aF0
aF0
aa(lp124
F0.090909090909090912
aF0.90909090909090906
aF0
aF0
aa(lp125
F0.27272727272727271
aF0.72727272727272729
aF0
aF0
aa(lp126
F0
aF1
aF0
aF0
aa(lp127
F0.63636363636363635
aF0.36363636363636365
aF0
aF0
aa(lp128
F0.81818181818181823
aF0.18181818181818182
aF0
aF0
aa(lp129
F0.72727272727272729
aF0.27272727272727271
aF0
aF0
aa(lp130
F0.36363636363636365
aF0.54545454545454541
aF0
aF0.090909090909090912
aa(lp131
F0
aF1
aF0
aF0
aa(lp132
F1
aF0
aF0
aF0
aa(lp133
F0.36363636363636365
aF0.63636363636363635
aF0
aF0
aa(lp134
F0.090909090909090912
aF0.90909090909090906
aF0
aF0
aa(lp135
F0.27272727272727271
aF0.72727272727272729
aF0
aF0
aa(lp136
F0.36363636363636365
aF0.54545454545454541
aF0.090909090909090912
aF0
aa(lp137
F0.18181818181818182
aF0.81818181818181823
aF0
aF0
aa(lp138
F0.36363636363636365
aF0.45454545454545453
aF0
aF0.18181818181818182
aa(lp139
F0.36363636363636365
aF0.45454545454545453
aF0.090909090909090912
aF0.090909090909090912
aa(lp140
F0.36363636363636365
aF0.54545454545454541
aF0
aF0.090909090909090912
aa(lp141
F0.090909090909090912
aF0.63636363636363635
aF0.27272727272727271
aF0
aa(lp142
F0.36363636363636365
aF0.36363636363636365
aF0.18181818181818182
aF0.090909090909090912
aasbsS'Gata1_MA0035.2'
p143
(ipssm
pssm
p144
(dp145
g5
S'0.01'
p146
sg7
Nsg8
S'100'
p147
sg10
S'Gata1_MA0035.2'
p148
sg12
(lp149
(lp150
F0.35575000000000001
aF0.14000000000000001
aF0.3105
aF0.19375000000000001
aa(lp151
F0.17699999999999999
aF0.40825
aF0.30875000000000002
aF0.106
aa(lp152
F0.69550000000000001
aF0.0077499999999999999
aF0.0025000000000000001
aF0.29425000000000001
aa(lp153
F0
aF0
aF1
aF0
aa(lp154
F1
aF0
aF0
aF0
aa(lp155
F0.0067499999999999999
aF0.0072500000000000004
aF0.02725
aF0.95874999999999999
aa(lp156
F0.97175
aF0
aF0.0015
aF0.026749999999999999
aa(lp157
F0.88749999999999996
aF0.001
aF0.095750000000000002
aF0.01575
aa(lp158
F0.19975000000000001
aF0.17025000000000001
aF0.57399999999999995
aF0.056000000000000001
aa(lp159
F0.35799999999999998
aF0.22425
aF0.34000000000000002
aF0.07775
aa(lp160
F0.37175000000000002
aF0.20724999999999999
aF0.27474999999999999
aF0.14624999999999999
aasbsS'Gata1_MA0035.1'
p161
(ipssm
pssm
p162
(dp163
g5
S'0.01'
p164
sg7
Nsg8
S'100'
p165
sg10
S'Gata1_MA0035.1'
p166
sg12
(lp167
(lp168
F0.24528301886792453
aF0.26415094339622641
aF0.28301886792452829
aF0.20754716981132076
aa(lp169
F0
aF0
aF1
aF0
aa(lp170
F0.94339622641509435
aF0.037735849056603772
aF0
aF0.018867924528301886
aa(lp171
F0.018867924528301886
aF0
aF0.018867924528301886
aF0.96226415094339623
aa(lp172
F0.24528301886792453
aF0.11320754716981132
aF0.47169811320754718
aF0.16981132075471697
aa(lp173
F0.11320754716981132
aF0.30188679245283018
aF0.41509433962264153
aF0.16981132075471697
aasbsS'Tcfcp2l1_MA0145.1'
p174
(ipssm
pssm
p175
(dp176
g5
S'0.01'
p177
sg7
Nsg8
S'100'
p178
sg10
S'Tcfcp2l1_MA0145.1'
p179
sg12
(lp180
(lp181
F0.0019675356615838661
aF0.92547958681751108
aF0.062715199212985739
aF0.0098376783079193314
aa(lp182
F0.069972992879941076
aF0.80751288976184632
aF0.0054014240117849248
aF0.1171126933464277
aa(lp183
F0.59450845795538121
aF0.0051483206668301055
aF0.27580289286589849
aF0.12454032851189017
aa(lp184
F0.0058837950478058346
aF0.023780338318215247
aF0.96714881098308414
aF0.003187055650894827
aa(lp185
F0.17547723935389134
aF0.33627019089574156
aF0.025697503671071951
aF0.46255506607929514
aa(lp186
F0.098384728340675479
aF0.28928046989721001
aF0.062163485070974057
aF0.5501713166911405
aa(lp187
F0.17392367906066536
aF0.39726027397260272
aF0.15117416829745597
aF0.27764187866927592
aa(lp188
F0.35721271393643034
aF0.22493887530562348
aF0.25232273838630809
aF0.16552567237163815
aa(lp189
F0.63154034229828848
aF0.069682151589242056
aF0.19095354523227384
aF0.10782396088019559
aa(lp190
F0.39442133594323464
aF0.051382432101786155
aF0.31049669684365061
aF0.24369953511132861
aa(lp191
F0.0036692759295499019
aF0.93321917808219179
aF0.054794520547945202
aF0.0083170254403131111
aa(lp192
F0.061719324026451139
aF0.81214793044330147
aF0.0029390154298310064
aF0.12319373010041636
aa(lp193
F0.53655544651619236
aF0.007360157016683023
aF0.30593719332679098
aF0.15014720314033367
aa(lp194
F0.01203931203931204
aF0.028992628992628992
aF0.95479115479115484
aF0.0041769041769041766
aasbsS'Egr1_MA0162.1'
p195
(ipssm
pssm
p196
(dp197
g5
S'0.01'
p198
sg7
Nsg8
S'100'
p199
sg10
S'Egr1_MA0162.1'
p200
sg12
(lp201
(lp202
F0.20000000000000001
aF0.26666666666666666
aF0.066666666666666666
aF0.46666666666666667
aa(lp203
F0.13333333333333333
aF0.066666666666666666
aF0.80000000000000004
aF0
aa(lp204
F0
aF0.8666666666666667
aF0
aF0.13333333333333333
aa(lp205
F0
aF0
aF1
aF0
aa(lp206
F0
aF0
aF0.20000000000000001
aF0.80000000000000004
aa(lp207
F0.20000000000000001
aF0
aF0.80000000000000004
aF0
aa(lp208
F0.066666666666666666
aF0
aF0.93333333333333335
aF0
aa(lp209
F0
aF0
aF1
aF0
aa(lp210
F0.13333333333333333
aF0.66666666666666663
aF0
aF0.20000000000000001
aa(lp211
F0
aF0
aF1
aF0
aa(lp212
F0.066666666666666666
aF0
aF0.46666666666666667
aF0.46666666666666667
aasbsS'HNF1B_MA0153.1'
p213
(ipssm
pssm
p214
(dp215
g5
S'0.01'
p216
sg7
Nsg8
S'100'
p217
sg10
S'HNF1B_MA0153.1'
p218
sg12
(lp219
(lp220
F0
aF0.33333333333333331
aF0
aF0.66666666666666663
aa(lp221
F0
aF0.33333333333333331
aF0
aF0.66666666666666663
aa(lp222
F0.88888888888888884
aF0.1111111111111111
aF0
aF0
aa(lp223
F0.77777777777777779
aF0.1111111111111111
aF0.1111111111111111
aF0
aa(lp224
F0
aF0
aF0
aF1
aa(lp225
F0.55555555555555558
aF0
aF0.44444444444444442
aF0
aa(lp226
F0.33333333333333331
aF0
aF0.1111111111111111
aF0.55555555555555558
aa(lp227
F0
aF0
aF0.1111111111111111
aF0.88888888888888884
aa(lp228
F0
aF0
aF0
aF1
aa(lp229
F0.88888888888888884
aF0
aF0.1111111111111111
aF0
aa(lp230
F1
aF0
aF0
aF0
aa(lp231
F0
aF0.88888888888888884
aF0
aF0.1111111111111111
aasbsS'RXRA::VDR_MA0074.1'
p232
(ipssm
pssm
p233
(dp234
g5
S'0.01'
p235
sg7
Nsg8
S'100'
p236
sg10
S'RXRA::VDR_MA0074.1'
p237
sg12
(lp238
(lp239
F0.29999999999999999
aF0
aF0.69999999999999996
aF0
aa(lp240
F0
aF0
aF1
aF0
aa(lp241
F0
aF0
aF0.90000000000000002
aF0.10000000000000001
aa(lp242
F0
aF0
aF0
aF1
aa(lp243
F0
aF0.90000000000000002
aF0
aF0.10000000000000001
aa(lp244
F0.90000000000000002
aF0
aF0.10000000000000001
aF0
aa(lp245
F0.40000000000000002
aF0.20000000000000001
aF0
aF0.40000000000000002
aa(lp246
F0.20000000000000001
aF0.40000000000000002
aF0.20000000000000001
aF0.20000000000000001
aa(lp247
F0.20000000000000001
aF0
aF0.80000000000000004
aF0
aa(lp248
F0.5
aF0
aF0.5
aF0
aa(lp249
F0
aF0
aF1
aF0
aa(lp250
F0
aF0
aF0
aF1
aa(lp251
F0.10000000000000001
aF0
aF0
aF0.90000000000000002
aa(lp252
F0
aF0.90000000000000002
aF0
aF0.10000000000000001
aa(lp253
F0.69999999999999996
aF0.10000000000000001
aF0.20000000000000001
aF0
aasbsS'AP1_MA0099.2'
p254
(ipssm
pssm
p255
(dp256
g5
S'0.01'
p257
sg7
Nsg8
S'100'
p258
sg10
S'AP1_MA0099.2'
p259
sg12
(lp260
(lp261
F0
aF0.055555555555555552
aF0
aF0.94444444444444442
aa(lp262
F0
aF0
aF0.83333333333333337
aF0.16666666666666666
aa(lp263
F0.88888888888888884
aF0.1111111111111111
aF0
aF0
aa(lp264
F0.27777777777777779
aF0.66666666666666663
aF0.055555555555555552
aF0
aa(lp265
F0.16666666666666666
aF0
aF0.055555555555555552
aF0.77777777777777779
aa(lp266
F0
aF0.83333333333333337
aF0.16666666666666666
aF0
aa(lp267
F0.88888888888888884
aF0
aF0.055555555555555552
aF0.055555555555555552
aasbsS'STAT1_MA0137.2'
p268
(ipssm
pssm
p269
(dp270
g5
S'0.01'
p271
sg7
Nsg8
S'100'
p272
sg10
S'STAT1_MA0137.2'
p273
sg12
(lp274
(lp275
F0.10014443909484834
aF0.5180548868560424
aF0.19980741454020221
aF0.18199325950890707
aa(lp276
F0.41298076923076921
aF0.23846153846153847
aF0.13413461538461538
aF0.21442307692307691
aa(lp277
F0.12061508889956751
aF0.27582892839980777
aF0.069197501201345504
aF0.53435848149927923
aa(lp278
F0.0048053820278712162
aF0.010571840461316675
aF0.0052859202306583374
aF0.97933685728015374
aa(lp279
F0.003840614498319731
aF0.0067210753720595299
aF0.018242918867018725
aF0.97119539126260201
aa(lp280
F0.050839328537170263
aF0.9213429256594724
aF0.00671462829736211
aF0.021103117505995205
aa(lp281
F0.011031175059952039
aF0.91127098321342925
aF0.003357314148681055
aF0.074340527577937646
aa(lp282
F0.25323741007194245
aF0.36546762589928056
aF0.055155875299760189
aF0.32613908872901681
aa(lp283
F0.33381294964028779
aF0.014868105515587531
aF0.61966426858513191
aF0.031654676258992806
aa(lp284
F0.025419664268585131
aF0.014388489208633094
aF0.815347721822542
aF0.1448441247002398
aa(lp285
F0.91127098321342925
aF0.059472422062350122
aF0.013908872901678656
aF0.015347721822541967
aa(lp286
F0.97362110311750605
aF0.0081534772182254196
aF0.011031175059952039
aF0.0071942446043165471
aa(lp287
F0.45777351247600767
aF0.1261996161228407
aF0.26487523992322459
aF0.15115163147792707
aa(lp288
F0.16153846153846155
aF0.36538461538461536
aF0.12980769230769232
aF0.34326923076923077
aa(lp289
F0.20077034183919115
aF0.38709677419354838
aF0.20462205103514686
aF0.20751083293211361
aasbsS'STAT1_MA0137.1'
p290
(ipssm
pssm
p291
(dp292
g5
S'0.01'
p293
sg7
Nsg8
S'100'
p294
sg10
S'STAT1_MA0137.1'
p295
sg12
(lp296
(lp297
F0.33333333333333331
aF0.066666666666666666
aF0.59999999999999998
aF0
aa(lp298
F0.13333333333333333
aF0
aF0.8666666666666667
aF0
aa(lp299
F0.73333333333333328
aF0
aF0.26666666666666666
aF0
aa(lp300
F1
aF0
aF0
aF0
aa(lp301
F0.93333333333333335
aF0.066666666666666666
aF0
aF0
aa(lp302
F0.53333333333333333
aF0.20000000000000001
aF0.20000000000000001
aF0.066666666666666666
aa(lp303
F0.066666666666666666
aF0.40000000000000002
aF0.13333333333333333
aF0.40000000000000002
aa(lp304
F0
aF0
aF1
aF0
aa(lp305
F1
aF0
aF0
aF0
aa(lp306
F1
aF0
aF0
aF0
aa(lp307
F1
aF0
aF0
aF0
aa(lp308
F0
aF0.93333333333333335
aF0.066666666666666666
aF0
aa(lp309
F0.066666666666666666
aF0.20000000000000001
aF0
aF0.73333333333333328
aa(lp310
F0.26666666666666666
aF0.13333333333333333
aF0.46666666666666667
aF0.13333333333333333
aasbsS'znf143_MA0088.1'
p311
(ipssm
pssm
p312
(dp313
g5
S'0.01'
p314
sg7
Nsg8
S'100'
p315
sg10
S'znf143_MA0088.1'
p316
sg12
(lp317
(lp318
F0
aF0.29999999999999999
aF0.40000000000000002
aF0.29999999999999999
aa(lp319
F0.59999999999999998
aF0.20000000000000001
aF0.10000000000000001
aF0.10000000000000001
aa(lp320
F0.20000000000000001
aF0.29999999999999999
aF0.10000000000000001
aF0.40000000000000002
aa(lp321
F0
aF0.29999999999999999
aF0.20000000000000001
aF0.5
aa(lp322
F0.20000000000000001
aF0.10000000000000001
aF0
aF0.69999999999999996
aa(lp323
F0.10000000000000001
aF0.69999999999999996
aF0
aF0.20000000000000001
aa(lp324
F0
aF1
aF0
aF0
aa(lp325
F0
aF1
aF0
aF0
aa(lp326
F0.90000000000000002
aF0.10000000000000001
aF0
aF0
aa(lp327
F0
aF0.10000000000000001
aF0.40000000000000002
aF0.5
aa(lp328
F0.40000000000000002
aF0.40000000000000002
aF0.20000000000000001
aF0
aa(lp329
F0.59999999999999998
aF0.20000000000000001
aF0.20000000000000001
aF0
aa(lp330
F0
aF0
aF0.10000000000000001
aF0.90000000000000002
aa(lp331
F0
aF0.10000000000000001
aF0.59999999999999998
aF0.29999999999999999
aa(lp332
F0
aF1
aF0
aF0
aa(lp333
F0.40000000000000002
aF0.5
aF0
aF0.10000000000000001
aa(lp334
F0.29999999999999999
aF0.10000000000000001
aF0.10000000000000001
aF0.5
aa(lp335
F0.20000000000000001
aF0.29999999999999999
aF0
aF0.5
aa(lp336
F0.10000000000000001
aF0.10000000000000001
aF0.69999999999999996
aF0.10000000000000001
aa(lp337
F0.29999999999999999
aF0.59999999999999998
aF0.10000000000000001
aF0
aasbsS'NFE2L1::MafG_MA0089.1'
p338
(ipssm
pssm
p339
(dp340
g5
S'0.01'
p341
sg7
Nsg8
S'100'
p342
sg10
S'NFE2L1::MafG_MA0089.1'
p343
sg12
(lp344
(lp345
F0.20588235294117646
aF0.3235294117647059
aF0.29411764705882354
aF0.17647058823529413
aa(lp346
F0.8529411764705882
aF0.058823529411764705
aF0.088235294117647065
aF0
aa(lp347
F0
aF0
aF0
aF1
aa(lp348
F0.029411764705882353
aF0
aF0.94117647058823528
aF0.029411764705882353
aa(lp349
F1
aF0
aF0
aF0
aa(lp350
F0
aF0.76470588235294112
aF0.058823529411764705
aF0.17647058823529413
aasbsS'ZEB1_MA0103.1'
p351
(ipssm
pssm
p352
(dp353
g5
S'0.01'
p354
sg7
Nsg8
S'100'
p355
sg10
S'ZEB1_MA0103.1'
p356
sg12
(lp357
(lp358
F0.024390243902439025
aF0.82926829268292679
aF0.024390243902439025
aF0.12195121951219512
aa(lp359
F0.92682926829268297
aF0
aF0.04878048780487805
aF0.024390243902439025
aa(lp360
F0
aF0.97560975609756095
aF0.024390243902439025
aF0
aa(lp361
F0
aF0.92682926829268297
aF0.073170731707317069
aF0
aa(lp362
F0
aF0.024390243902439025
aF0
aF0.97560975609756095
aa(lp363
F0.24390243902439024
aF0.024390243902439025
aF0.3902439024390244
aF0.34146341463414637
aasbsS'Foxa2_MA0047.2'
p364
(ipssm
pssm
p365
(dp366
g5
S'0.01'
p367
sg7
Nsg8
S'100'
p368
sg10
S'Foxa2_MA0047.2'
p369
sg12
(lp370
(lp371
F0.0012376237623762376
aF0.0012376237623762376
aF0.0012376237623762376
aF0.99628712871287128
aa(lp372
F0.27317676143386899
aF0.003708281829419036
aF0.71940667490729293
aF0.003708281829419036
aa(lp373
F0.0012360939431396785
aF0.0012360939431396785
aF0.0012360939431396785
aF0.99629171817058093
aa(lp374
F0.0012360939431396785
aF0.003708281829419036
aF0.044499381953028432
aF0.95055624227441282
aa(lp375
F0.0012330456226880395
aF0.0012330456226880395
aF0.21578298397040691
aF0.78175092478421704
aa(lp376
F0.90864197530864199
aF0.0049382716049382715
aF0.082716049382716053
aF0.0037037037037037038
aa(lp377
F0.0024691358024691358
aF0.89506172839506171
aF0.0024691358024691358
aF0.10000000000000001
aa(lp378
F0.4177997527812114
aF0.095179233621755246
aF0.003708281829419036
aF0.48331273176761436
aa(lp379
F0.061804697156983932
aF0.32756489493201485
aF0.071693448702101356
aF0.53893695920889984
aa(lp380
F0.51672862453531598
aF0.0074349442379182153
aF0.029739776951672861
aF0.44609665427509293
aa(lp381
F0.16253101736972705
aF0.065756823821339946
aF0.59801488833746896
aF0.17369727047146402
aa(lp382
F0.16064757160647572
aF0.24283935242839352
aF0.36114570361145704
aF0.23536737235367372
aasbsS'Esrrb_MA0141.1'
p383
(ipssm
pssm
p384
(dp385
g5
S'0.01'
p386
sg7
Nsg8
S'100'
p387
sg10
S'Esrrb_MA0141.1'
p388
sg12
(lp389
(lp390
F0.29019823788546256
aF0.22026431718061673
aF0.27120044052863435
aF0.21833700440528633
aa(lp391
F0.18494091783456992
aF0.22780983786754602
aF0.37647705413575155
aF0.21077219016213244
aa(lp392
F0.11522633744855967
aF0.33223593964334708
aF0.33168724279835393
aF0.22085048010973937
aa(lp393
F0.070958904109589035
aF0.34246575342465752
aF0.12273972602739726
aF0.46383561643835619
aa(lp394
F0.084861757459622225
aF0.72926361894333425
aF0.17163974815220367
aF0.014234875444839857
aa(lp395
F0.90973741794310725
aF0.0087527352297592995
aF0.067833698030634576
aF0.013676148796498906
aa(lp396
F0.97565645514223198
aF0.00054704595185995622
aF0.016411378555798686
aF0.0073851203501094096
aa(lp397
F0.0087575259989053095
aF0.0013683634373289546
aF0.9813902572523262
aF0.0084838533114395178
aa(lp398
F0.0057502738225629789
aF0.0032858707557502738
aF0.98630887185104055
aF0.0046549835706462209
aa(lp399
F0.049904030710172742
aF0.012613106663010694
aF0.066904304908143683
aF0.87057855771867287
aa(lp400
F0.0024725274725274724
aF0.92747252747252751
aF0.046703296703296704
aF0.023351648351648352
aa(lp401
F0.9515685195376995
aF0.0055035773252614202
aF0.035498073747936155
aF0.0074298293891029172
aasbsS'SOX10_MA0442.1'
p402
(ipssm
pssm
p403
(dp404
g5
S'0.01'
p405
sg7
Nsg8
S'100'
p406
sg10
S'SOX10_MA0442.1'
p407
sg12
(lp408
(lp409
F0
aF0.86363636363636365
aF0
aF0.13636363636363635
aa(lp410
F0.36363636363636365
aF0.090909090909090912
aF0.090909090909090912
aF0.45454545454545453
aa(lp411
F0
aF0.045454545454545456
aF0.18181818181818182
aF0.77272727272727271
aa(lp412
F0
aF0
aF0
aF1
aa(lp413
F0
aF0.13636363636363635
aF0.86363636363636365
aF0
aa(lp414
F0
aF0
aF0.045454545454545456
aF0.95454545454545459
aasbsS'Foxa2_MA0047.1'
p415
(ipssm
pssm
p416
(dp417
g5
S'0.01'
p418
sg7
Nsg8
S'100'
p419
sg10
S'Foxa2_MA0047.1'
p420
sg12
(lp421
(lp422
F0.35294117647058826
aF0.41176470588235292
aF0.17647058823529413
aF0.058823529411764705
aa(lp423
F0.6470588235294118
aF0.17647058823529413
aF0.058823529411764705
aF0.11764705882352941
aa(lp424
F0.47058823529411764
aF0.17647058823529413
aF0.058823529411764705
aF0.29411764705882354
aa(lp425
F0
aF0.058823529411764705
aF0
aF0.94117647058823528
aa(lp426
F0.6470588235294118
aF0
aF0.35294117647058826
aF0
aa(lp427
F0
aF0.058823529411764705
aF0
aF0.94117647058823528
aa(lp428
F0
aF0.058823529411764705
aF0
aF0.94117647058823528
aa(lp429
F0
aF0
aF0.35294117647058826
aF0.6470588235294118
aa(lp430
F0.52941176470588236
aF0
aF0.47058823529411764
aF0
aa(lp431
F0
aF0.52941176470588236
aF0
aF0.47058823529411764
aa(lp432
F0.058823529411764705
aF0.058823529411764705
aF0.058823529411764705
aF0.82352941176470584
aa(lp433
F0
aF0.29411764705882354
aF0
aF0.70588235294117652
aasbsS'SOX9_MA0077.1'
p434
(ipssm
pssm
p435
(dp436
g5
S'0.01'
p437
sg7
Nsg8
S'100'
p438
sg10
S'SOX9_MA0077.1'
p439
sg12
(lp440
(lp441
F0.31578947368421051
aF0.092105263157894732
aF0.40789473684210525
aF0.18421052631578946
aa(lp442
F0.71052631578947367
aF0.078947368421052627
aF0.092105263157894732
aF0.11842105263157894
aa(lp443
F0.77631578947368418
aF0.052631578947368418
aF0
aF0.17105263157894737
aa(lp444
F0
aF0.94736842105263153
aF0.026315789473684209
aF0.026315789473684209
aa(lp445
F0.85526315789473684
aF0.052631578947368418
aF0
aF0.092105263157894732
aa(lp446
F0.93421052631578949
aF0.026315789473684209
aF0.013157894736842105
aF0.026315789473684209
aa(lp447
F0.052631578947368418
aF0
aF0.013157894736842105
aF0.93421052631578949
aa(lp448
F0.31578947368421051
aF0.078947368421052627
aF0.5
aF0.10526315789473684
aa(lp449
F0.11842105263157894
aF0.11842105263157894
aF0.72368421052631582
aF0.039473684210526314
aasbsS'ESR2_MA0258.1'
p450
(ipssm
pssm
p451
(dp452
g5
S'0.01'
p453
sg7
Nsg8
S'100'
p454
sg10
S'ESR2_MA0258.1'
p455
sg12
(lp456
(lp457
F0.21848739495798319
aF0.45098039215686275
aF0.17647058823529413
aF0.15406162464985995
aa(lp458
F0.44257703081232491
aF0.14285714285714285
aF0.11484593837535013
aF0.29971988795518206
aa(lp459
F0.52100840336134457
aF0.042016806722689079
aF0.43137254901960786
aF0.0056022408963585435
aa(lp460
F0.075630252100840331
aF0
aF0.77030812324929976
aF0.15406162464985995
aa(lp461
F0.050420168067226892
aF0.056022408963585436
aF0.89355742296918772
aF0
aa(lp462
F0.036414565826330535
aF0.053221288515406161
aF0.092436974789915971
aF0.81792717086834732
aa(lp463
F0
aF1
aF0
aF0
aa(lp464
F0.94397759103641454
aF0.0028011204481792717
aF0
aF0.053221288515406161
aa(lp465
F0.13725490196078433
aF0.34453781512605042
aF0.31652661064425769
aF0.20168067226890757
aa(lp466
F0.17927170868347339
aF0.17647058823529413
aF0.4173669467787115
aF0.22689075630252101
aa(lp467
F0.14565826330532214
aF0.17086834733893558
aF0.41176470588235292
aF0.27170868347338933
aa(lp468
F0.058823529411764705
aF0.092436974789915971
aF0.067226890756302518
aF0.78151260504201681
aa(lp469
F0.17647058823529413
aF0.070028011204481794
aF0.74229691876750703
aF0.011204481792717087
aa(lp470
F0.49859943977591037
aF0.27731092436974791
aF0.053221288515406161
aF0.17086834733893558
aa(lp471
F0.095238095238095233
aF0.75070028011204482
aF0.0056022408963585435
aF0.1484593837535014
aa(lp472
F0.12885154061624648
aF0.80952380952380953
aF0
aF0.061624649859943981
aa(lp473
F0.075630252100840331
aF0.25210084033613445
aF0
aF0.67226890756302526
aa(lp474
F0.16806722689075632
aF0.26330532212885155
aF0.38095238095238093
aF0.1876750700280112
aasbsS'Fos_MA0099.1'
p475
(ipssm
pssm
p476
(dp477
g5
S'0.01'
p478
sg7
Nsg8
S'100'
p479
sg10
S'Fos_MA0099.1'
p480
sg12
(lp481
(lp482
F0.26315789473684209
aF0.10526315789473684
aF0.63157894736842102
aF0
aa(lp483
F0
aF0
aF0
aF1
aa(lp484
F0
aF0.052631578947368418
aF0.94736842105263153
aF0
aa(lp485
F0.94736842105263153
aF0.052631578947368418
aF0
aF0
aa(lp486
F0.052631578947368418
aF0.31578947368421051
aF0.47368421052631576
aF0.15789473684210525
aa(lp487
F0.052631578947368418
aF0.052631578947368418
aF0
aF0.89473684210526316
aa(lp488
F0.31578947368421051
aF0.68421052631578949
aF0
aF0
aa(lp489
F0.94736842105263153
aF0
aF0
aF0.052631578947368418
aasbsS'SRF_MA0083.1'
p490
(ipssm
pssm
p491
(dp492
g5
S'0.01'
p493
sg7
Nsg8
S'100'
p494
sg10
S'SRF_MA0083.1'
p495
sg12
(lp496
(lp497
F0.043478260869565216
aF0.021739130434782608
aF0.84782608695652173
aF0.086956521739130432
aa(lp498
F0.19565217391304349
aF0.71739130434782605
aF0.043478260869565216
aF0.043478260869565216
aa(lp499
F0
aF0.97826086956521741
aF0.021739130434782608
aF0
aa(lp500
F0.021739130434782608
aF0.97826086956521741
aF0
aF0
aa(lp501
F0.69565217391304346
aF0.021739130434782608
aF0
aF0.28260869565217389
aa(lp502
F0.065217391304347824
aF0.021739130434782608
aF0
aF0.91304347826086951
aa(lp503
F1
aF0
aF0
aF0
aa(lp504
F0.021739130434782608
aF0
aF0
aF0.97826086956521741
aa(lp505
F0.93478260869565222
aF0
aF0
aF0.065217391304347824
aa(lp506
F0.32608695652173914
aF0.021739130434782608
aF0
aF0.65217391304347827
aa(lp507
F0.043478260869565216
aF0
aF0.95652173913043481
aF0
aa(lp508
F0.043478260869565216
aF0.021739130434782608
aF0.93478260869565222
aF0
aasbsS'HLF_MA0043.1'
p509
(ipssm
pssm
p510
(dp511
g5
S'0.01'
p512
sg7
Nsg8
S'100'
p513
sg10
S'HLF_MA0043.1'
p514
sg12
(lp515
(lp516
F0.055555555555555552
aF0.22222222222222221
aF0.44444444444444442
aF0.27777777777777779
aa(lp517
F0.33333333333333331
aF0
aF0.66666666666666663
aF0
aa(lp518
F0.055555555555555552
aF0
aF0
aF0.94444444444444442
aa(lp519
F0
aF0
aF0.16666666666666666
aF0.83333333333333337
aa(lp520
F0.72222222222222221
aF0.055555555555555552
aF0.1111111111111111
aF0.1111111111111111
aa(lp521
F0
aF0.83333333333333337
aF0.055555555555555552
aF0.1111111111111111
aa(lp522
F0.33333333333333331
aF0
aF0.66666666666666663
aF0
aa(lp523
F0
aF0.5
aF0
aF0.5
aa(lp524
F0.72222222222222221
aF0.22222222222222221
aF0.055555555555555552
aF0
aa(lp525
F0.83333333333333337
aF0
aF0.055555555555555552
aF0.1111111111111111
aa(lp526
F0.1111111111111111
aF0.16666666666666666
aF0.055555555555555552
aF0.66666666666666663
aa(lp527
F0.27777777777777779
aF0.27777777777777779
aF0.16666666666666666
aF0.27777777777777779
aasbsS'SPI1_MA0080.2'
p528
(ipssm
pssm
p529
(dp530
g5
S'0.01'
p531
sg7
Nsg8
S'100'
p532
sg10
S'SPI1_MA0080.2'
p533
sg12
(lp534
(lp535
F0.7857142857142857
aF0.071428571428571425
aF0.14285714285714285
aF0
aa(lp536
F0.095238095238095233
aF0
aF0.88095238095238093
aF0.023809523809523808
aa(lp537
F0.095238095238095233
aF0
aF0.90476190476190477
aF0
aa(lp538
F1
aF0
aF0
aF0
aa(lp539
F0.97619047619047616
aF0
aF0.023809523809523808
aF0
aa(lp540
F0.11904761904761904
aF0.071428571428571425
aF0.7857142857142857
aF0.023809523809523808
aa(lp541
F0.071428571428571425
aF0.11904761904761904
aF0.047619047619047616
aF0.76190476190476186
aasbsS'SPI1_MA0080.1'
p542
(ipssm
pssm
p543
(dp544
g5
S'0.01'
p545
sg7
Nsg8
S'100'
p546
sg10
S'SPI1_MA0080.1'
p547
sg12
(lp548
(lp549
F0.24561403508771928
aF0.36842105263157893
aF0.33333333333333331
aF0.052631578947368418
aa(lp550
F0.070175438596491224
aF0.035087719298245612
aF0.84210526315789469
aF0.052631578947368418
aa(lp551
F0.052631578947368418
aF0
aF0.91228070175438591
aF0.035087719298245612
aa(lp552
F0.98245614035087714
aF0.017543859649122806
aF0
aF0
aa(lp553
F0.98245614035087714
aF0
aF0
aF0.017543859649122806
aa(lp554
F0.052631578947368418
aF0.31578947368421051
aF0.59649122807017541
aF0.035087719298245612
aasbsS'ELK4_MA0076.1'
p555
(ipssm
pssm
p556
(dp557
g5
S'0.01'
p558
sg7
Nsg8
S'100'
p559
sg10
S'ELK4_MA0076.1'
p560
sg12
(lp561
(lp562
F0.80000000000000004
aF0.050000000000000003
aF0.10000000000000001
aF0.050000000000000003
aa(lp563
F0
aF1
aF0
aF0
aa(lp564
F0
aF1
aF0
aF0
aa(lp565
F0
aF0
aF1
aF0
aa(lp566
F0
aF0
aF1
aF0
aa(lp567
F1
aF0
aF0
aF0
aa(lp568
F0.80000000000000004
aF0
aF0
aF0.20000000000000001
aa(lp569
F0.20000000000000001
aF0.050000000000000003
aF0.75
aF0
aa(lp570
F0.050000000000000003
aF0.29999999999999999
aF0
aF0.65000000000000002
aasbsS'FOXI1_MA0042.1'
p571
(ipssm
pssm
p572
(dp573
g5
S'0.01'
p574
sg7
Nsg8
S'100'
p575
sg10
S'FOXI1_MA0042.1'
p576
sg12
(lp577
(lp578
F0.19354838709677419
aF0.032258064516129031
aF0.45161290322580644
aF0.32258064516129031
aa(lp579
F0.12903225806451613
aF0.25806451612903225
aF0.38709677419354838
aF0.22580645161290322
aa(lp580
F0.35483870967741937
aF0.12903225806451613
aF0.25806451612903225
aF0.25806451612903225
aa(lp581
F0
aF0
aF0
aF1
aa(lp582
F0.41935483870967744
aF0
aF0.58064516129032262
aF0
aa(lp583
F0
aF0
aF0
aF1
aa(lp584
F0
aF0
aF0
aF1
aa(lp585
F0
aF0
aF0
aF1
aa(lp586
F0.4838709677419355
aF0
aF0.5161290322580645
aF0
aa(lp587
F0
aF0
aF0.22580645161290322
aF0.77419354838709675
aa(lp588
F0.25806451612903225
aF0.032258064516129031
aF0.12903225806451613
aF0.58064516129032262
aa(lp589
F0.064516129032258063
aF0.032258064516129031
aF0.12903225806451613
aF0.77419354838709675
aasbsS'ETS1_MA0098.1'
p590
(ipssm
pssm
p591
(dp592
g5
S'0.01'
p593
sg7
Nsg8
S'100'
p594
sg10
S'ETS1_MA0098.1'
p595
sg12
(lp596
(lp597
F0.10000000000000001
aF0.40000000000000002
aF0.10000000000000001
aF0.40000000000000002
aa(lp598
F0.42499999999999999
aF0
aF0
aF0.57499999999999996
aa(lp599
F0
aF0.025000000000000001
aF0
aF0.97499999999999998
aa(lp600
F0
aF0.97499999999999998
aF0.025000000000000001
aF0
aa(lp601
F0
aF0.97499999999999998
aF0
aF0.025000000000000001
aa(lp602
F0.125
aF0.074999999999999997
aF0.42499999999999999
aF0.375
aasbsS'MAX_MA0058.1'
p603
(ipssm
pssm
p604
(dp605
g5
S'0.01'
p606
sg7
Nsg8
S'100'
p607
sg10
S'MAX_MA0058.1'
p608
sg12
(lp609
(lp610
F0.35294117647058826
aF0.058823529411764705
aF0.35294117647058826
aF0.23529411764705882
aa(lp611
F0.6470588235294118
aF0.058823529411764705
aF0.29411764705882354
aF0
aa(lp612
F0.29411764705882354
aF0.41176470588235292
aF0.058823529411764705
aF0.23529411764705882
aa(lp613
F0
aF1
aF0
aF0
aa(lp614
F0.94117647058823528
aF0.058823529411764705
aF0
aF0
aa(lp615
F0
aF1
aF0
aF0
aa(lp616
F0.058823529411764705
aF0
aF0.94117647058823528
aF0
aa(lp617
F0
aF0
aF0
aF1
aa(lp618
F0
aF0
aF1
aF0
aa(lp619
F0.35294117647058826
aF0.17647058823529413
aF0.29411764705882354
aF0.17647058823529413
aasbsS'FOXC1_MA0032.1'
p620
(ipssm
pssm
p621
(dp622
g5
S'0.01'
p623
sg7
Nsg8
S'100'
p624
sg10
S'FOXC1_MA0032.1'
p625
sg12
(lp626
(lp627
F0.25
aF0.25
aF0.3125
aF0.1875
aa(lp628
F0.125
aF0.3125
aF0.375
aF0.1875
aa(lp629
F0.25
aF0.25
aF0.1875
aF0.3125
aa(lp630
F0.375
aF0.25
aF0.3125
aF0.0625
aa(lp631
F0.4375
aF0.1875
aF0.125
aF0.25
aa(lp632
F0
aF0
aF1
aF0
aa(lp633
F0
aF0
aF0
aF1
aa(lp634
F1
aF0
aF0
aF0
aasbsS'E2F1_MA0024.1'
p635
(ipssm
pssm
p636
(dp637
g5
S'0.01'
p638
sg7
Nsg8
S'100'
p639
sg10
S'E2F1_MA0024.1'
p640
sg12
(lp641
(lp642
F0
aF0
aF0
aF1
aa(lp643
F0
aF0
aF0
aF1
aa(lp644
F0
aF0
aF0
aF1
aa(lp645
F0
aF0.40000000000000002
aF0.59999999999999998
aF0
aa(lp646
F0
aF0.20000000000000001
aF0.80000000000000004
aF0
aa(lp647
F0
aF1
aF0
aF0
aa(lp648
F0
aF0
aF1
aF0
aa(lp649
F0
aF0.90000000000000002
aF0.10000000000000001
aF0
aasbsS'HIF1A::ARNT_MA0259.1'
p650
(ipssm
pssm
p651
(dp652
g5
S'0.01'
p653
sg7
Nsg8
S'100'
p654
sg10
S'HIF1A::ARNT_MA0259.1'
p655
sg12
(lp656
(lp657
F0.25961538461538464
aF0.26923076923076922
aF0.47115384615384615
aF0
aa(lp658
F0.096153846153846159
aF0.27884615384615385
aF0.32692307692307693
aF0.29807692307692307
aa(lp659
F0.75
aF0.019230769230769232
aF0.22115384615384615
aF0.0096153846153846159
aa(lp660
F0
aF0.99038461538461542
aF0
aF0.0096153846153846159
aa(lp661
F0
aF0
aF1
aF0
aa(lp662
F0
aF0
aF0
aF1
aa(lp663
F0
aF0
aF1
aF0
aa(lp664
F0.17307692307692307
aF0.49038461538461536
aF0.19230769230769232
aF0.14423076923076922
aasbsS'IRF2_MA0051.1'
p665
(ipssm
pssm
p666
(dp667
g5
S'0.01'
p668
sg7
Nsg8
S'100'
p669
sg10
S'IRF2_MA0051.1'
p670
sg12
(lp671
(lp672
F0
aF0.33333333333333331
aF0.58333333333333337
aF0.083333333333333329
aa(lp673
F0.16666666666666666
aF0
aF0.83333333333333337
aF0
aa(lp674
F1
aF0
aF0
aF0
aa(lp675
F0.91666666666666663
aF0
aF0
aF0.083333333333333329
aa(lp676
F1
aF0
aF0
aF0
aa(lp677
F0.16666666666666666
aF0
aF0.83333333333333337
aF0
aa(lp678
F0
aF0.5
aF0
aF0.5
aa(lp679
F0
aF0
aF1
aF0
aa(lp680
F1
aF0
aF0
aF0
aa(lp681
F1
aF0
aF0
aF0
aa(lp682
F1
aF0
aF0
aF0
aa(lp683
F0
aF0.5
aF0.5
aF0
aa(lp684
F0
aF0.58333333333333337
aF0.16666666666666666
aF0.25
aa(lp685
F0.41666666666666669
aF0.16666666666666666
aF0.25
aF0.16666666666666666
aa(lp686
F0.5
aF0
aF0.16666666666666666
aF0.33333333333333331
aa(lp687
F0.5
aF0.083333333333333329
aF0.083333333333333329
aF0.33333333333333331
aa(lp688
F0.41666666666666669
aF0.16666666666666666
aF0.083333333333333329
aF0.33333333333333331
aa(lp689
F0.25
aF0.5
aF0.083333333333333329
aF0.16666666666666666
aasbsS'TP53_MA0106.1'
p690
(ipssm
pssm
p691
(dp692
g5
S'0.01'
p693
sg7
Nsg8
S'100'
p694
sg10
S'TP53_MA0106.1'
p695
sg12
(lp696
(lp697
F0.29411764705882354
aF0.47058823529411764
aF0.11764705882352941
aF0.11764705882352941
aa(lp698
F0.17647058823529413
aF0.41176470588235292
aF0.35294117647058826
aF0.058823529411764705
aa(lp699
F0.23529411764705882
aF0
aF0.76470588235294112
aF0
aa(lp700
F0.29411764705882354
aF0
aF0.70588235294117652
aF0
aa(lp701
F0.76470588235294112
aF0
aF0.23529411764705882
aF0
aa(lp702
F0
aF1
aF0
aF0
aa(lp703
F1
aF0
aF0
aF0
aa(lp704
F0
aF0
aF0
aF1
aa(lp705
F0
aF0
aF1
aF0
aa(lp706
F0
aF0.6470588235294118
aF0
aF0.35294117647058826
aa(lp707
F0
aF0.94117647058823528
aF0
aF0.058823529411764705
aa(lp708
F0
aF0.94117647058823528
aF0
aF0.058823529411764705
aa(lp709
F0.058823529411764705
aF0
aF0.88235294117647056
aF0.058823529411764705
aa(lp710
F0.058823529411764705
aF0
aF0.82352941176470584
aF0.11764705882352941
aa(lp711
F0.23529411764705882
aF0
aF0.76470588235294112
aF0
aa(lp712
F0.058823529411764705
aF0.82352941176470584
aF0.11764705882352941
aF0
aa(lp713
F0.88235294117647056
aF0
aF0
aF0.11764705882352941
aa(lp714
F0.11764705882352941
aF0
aF0
aF0.88235294117647056
aa(lp715
F0.058823529411764705
aF0.058823529411764705
aF0.82352941176470584
aF0.058823529411764705
aa(lp716
F0.058823529411764705
aF0.11764705882352941
aF0.058823529411764705
aF0.76470588235294112
aasbsS'INSM1_MA0155.1'
p717
(ipssm
pssm
p718
(dp719
g5
S'0.01'
p720
sg7
Nsg8
S'100'
p721
sg10
S'INSM1_MA0155.1'
p722
sg12
(lp723
(lp724
F0.041666666666666664
aF0
aF0.16666666666666666
aF0.79166666666666663
aa(lp725
F0
aF0
aF0.83333333333333337
aF0.16666666666666666
aa(lp726
F0
aF0.33333333333333331
aF0.125
aF0.54166666666666663
aa(lp727
F0.25
aF0.625
aF0
aF0.125
aa(lp728
F0.66666666666666663
aF0
aF0
aF0.33333333333333331
aa(lp729
F0
aF0
aF1
aF0
aa(lp730
F0
aF0.041666666666666664
aF0.95833333333333337
aF0
aa(lp731
F0
aF0
aF1
aF0
aa(lp732
F0
aF0
aF1
aF0
aa(lp733
F0
aF0.083333333333333329
aF0.66666666666666663
aF0.25
aa(lp734
F0.125
aF0.66666666666666663
aF0
aF0.20833333333333334
aa(lp735
F0.41666666666666669
aF0
aF0.5
aF0.083333333333333329
aasbsS'TEAD1_MA0090.1'
p736
(ipssm
pssm
p737
(dp738
g5
S'0.01'
p739
sg7
Nsg8
S'100'
p740
sg10
S'TEAD1_MA0090.1'
p741
sg12
(lp742
(lp743
F0.083333333333333329
aF0.5
aF0.083333333333333329
aF0.33333333333333331
aa(lp744
F0.75
aF0
aF0.25
aF0
aa(lp745
F0
aF1
aF0
aF0
aa(lp746
F1
aF0
aF0
aF0
aa(lp747
F0
aF0
aF0
aF1
aa(lp748
F0
aF0
aF0
aF1
aa(lp749
F0
aF1
aF0
aF0
aa(lp750
F0
aF0.91666666666666663
aF0
aF0.083333333333333329
aa(lp751
F0.41666666666666669
aF0
aF0
aF0.58333333333333337
aa(lp752
F0.083333333333333329
aF0.58333333333333337
aF0.33333333333333331
aF0
aa(lp753
F0.16666666666666666
aF0.33333333333333331
aF0.25
aF0.25
aa(lp754
F0
aF0.16666666666666666
aF0.66666666666666663
aF0.16666666666666666
aasbsS'Nkx2-5_MA0063.1'
p755
(ipssm
pssm
p756
(dp757
g5
S'0.01'
p758
sg7
Nsg8
S'100'
p759
sg10
S'Nkx2-5_MA0063.1'
p760
sg12
(lp761
(lp762
F0.41176470588235292
aF0
aF0.058823529411764705
aF0.52941176470588236
aa(lp763
F0
aF0.23529411764705882
aF0
aF0.76470588235294112
aa(lp764
F1
aF0
aF0
aF0
aa(lp765
F1
aF0
aF0
aF0
aa(lp766
F0
aF0
aF0.41176470588235292
aF0.58823529411764708
aa(lp767
F0.23529411764705882
aF0.11764705882352941
aF0
aF0.6470588235294118
aa(lp768
F0.11764705882352941
aF0.058823529411764705
aF0.6470588235294118
aF0.17647058823529413
aasbsS'USF1_MA0093.1'
p769
(ipssm
pssm
p770
(dp771
g5
S'0.01'
p772
sg7
Nsg8
S'100'
p773
sg10
S'USF1_MA0093.1'
p774
sg12
(lp775
(lp776
F0
aF1
aF0
aF0
aa(lp777
F1
aF0
aF0
aF0
aa(lp778
F0
aF0.93333333333333335
aF0
aF0.066666666666666666
aa(lp779
F0.033333333333333333
aF0
aF0.96666666666666667
aF0
aa(lp780
F0
aF0.033333333333333333
aF0.033333333333333333
aF0.93333333333333335
aa(lp781
F0
aF0
aF1
aF0
aa(lp782
F0.29999999999999999
aF0.066666666666666666
aF0.46666666666666667
aF0.16666666666666666
aasbsS'Sox17_MA0078.1'
p783
(ipssm
pssm
p784
(dp785
g5
S'0.01'
p786
sg7
Nsg8
S'100'
p787
sg10
S'Sox17_MA0078.1'
p788
sg12
(lp789
(lp790
F0.22580645161290322
aF0.29032258064516131
aF0.19354838709677419
aF0.29032258064516131
aa(lp791
F0.25806451612903225
aF0.25806451612903225
aF0.12903225806451613
aF0.35483870967741937
aa(lp792
F0.096774193548387094
aF0.58064516129032262
aF0.032258064516129031
aF0.29032258064516131
aa(lp793
F0.967741935483871
aF0
aF0
aF0.032258064516129031
aa(lp794
F0
aF0.032258064516129031
aF0
aF0.967741935483871
aa(lp795
F0
aF0
aF0
aF1
aa(lp796
F0
aF0
aF1
aF0
aa(lp797
F0
aF0
aF0.064516129032258063
aF0.93548387096774188
aa(lp798
F0
aF0.54838709677419351
aF0.32258064516129031
aF0.12903225806451613
aasbsS'PBX1_MA0070.1'
p799
(ipssm
pssm
p800
(dp801
g5
S'0.01'
p802
sg7
Nsg8
S'100'
p803
sg10
S'PBX1_MA0070.1'
p804
sg12
(lp805
(lp806
F0.27777777777777779
aF0.33333333333333331
aF0.1111111111111111
aF0.27777777777777779
aa(lp807
F0.16666666666666666
aF0.5
aF0.16666666666666666
aF0.16666666666666666
aa(lp808
F0.88888888888888884
aF0.055555555555555552
aF0.055555555555555552
aF0
aa(lp809
F0.055555555555555552
aF0.055555555555555552
aF0
aF0.88888888888888884
aa(lp810
F0
aF1
aF0
aF0
aa(lp811
F0.94444444444444442
aF0.055555555555555552
aF0
aF0
aa(lp812
F0.94444444444444442
aF0
aF0
aF0.055555555555555552
aa(lp813
F0
aF0
aF0.055555555555555552
aF0.94444444444444442
aa(lp814
F0
aF1
aF0
aF0
aa(lp815
F0.88888888888888884
aF0.055555555555555552
aF0
aF0.055555555555555552
aa(lp816
F0.66666666666666663
aF0
aF0.055555555555555552
aF0.27777777777777779
aa(lp817
F0.44444444444444442
aF0.1111111111111111
aF0.1111111111111111
aF0.33333333333333331
aasbsS'Hltf_MA0109.1'
p818
(ipssm
pssm
p819
(dp820
g5
S'0.01'
p821
sg7
Nsg8
S'100'
p822
sg10
S'Hltf_MA0109.1'
p823
sg12
(lp824
(lp825
F0.31372549019607843
aF0.19607843137254902
aF0.23529411764705882
aF0.25490196078431371
aa(lp826
F0.37735849056603776
aF0.22641509433962265
aF0.094339622641509441
aF0.30188679245283018
aa(lp827
F0.44067796610169491
aF0.55932203389830504
aF0
aF0
aa(lp828
F0
aF1
aF0
aF0
aa(lp829
F0.42372881355932202
aF0
aF0
aF0.57627118644067798
aa(lp830
F0
aF0
aF0
aF1
aa(lp831
F0.40677966101694918
aF0.084745762711864403
aF0.20338983050847459
aF0.30508474576271188
aa(lp832
F0
aF0
aF0.3728813559322034
aF0.6271186440677966
aa(lp833
F0.29411764705882354
aF0.27450980392156865
aF0.27450980392156865
aF0.15686274509803921
aa(lp834
F0.24489795918367346
aF0.24489795918367346
aF0.20408163265306123
aF0.30612244897959184
aasbsS'REST_MA0138.1'
p835
(ipssm
pssm
p836
(dp837
g5
S'0.01'
p838
sg7
Nsg8
S'100'
p839
sg10
S'REST_MA0138.1'
p840
sg12
(lp841
(lp842
F0.045454545454545456
aF0.090909090909090912
aF0.68181818181818177
aF0.18181818181818182
aa(lp843
F0.31818181818181818
aF0.40909090909090912
aF0.045454545454545456
aF0.22727272727272727
aa(lp844
F0.045454545454545456
aF0.13636363636363635
aF0.68181818181818177
aF0.13636363636363635
aa(lp845
F0
aF1
aF0
aF0
aa(lp846
F0
aF0.045454545454545456
aF0
aF0.95454545454545459
aa(lp847
F0.045454545454545456
aF0.18181818181818182
aF0.77272727272727271
aF0
aa(lp848
F0
aF0
aF0.090909090909090912
aF0.90909090909090906
aa(lp849
F0
aF0.86363636363636365
aF0.045454545454545456
aF0.090909090909090912
aa(lp850
F0
aF0.95454545454545459
aF0
aF0.045454545454545456
aa(lp851
F0.5
aF0.13636363636363635
aF0.22727272727272727
aF0.13636363636363635
aa(lp852
F0.22727272727272727
aF0.045454545454545456
aF0.13636363636363635
aF0.59090909090909094
aa(lp853
F0.090909090909090912
aF0
aF0.90909090909090906
aF0
aa(lp854
F0
aF0.045454545454545456
aF0.95454545454545459
aF0
aa(lp855
F0.045454545454545456
aF0
aF0.045454545454545456
aF0.90909090909090906
aa(lp856
F0
aF0.13636363636363635
aF0.72727272727272729
aF0.13636363636363635
aa(lp857
F0
aF0.95454545454545459
aF0
aF0.045454545454545456
aa(lp858
F0
aF0.045454545454545456
aF0
aF0.95454545454545459
aa(lp859
F0.045454545454545456
aF0.045454545454545456
aF0.90909090909090906
aF0
aa(lp860
F0.68181818181818177
aF0.045454545454545456
aF0.22727272727272727
aF0.045454545454545456
aasbsS'Myc_MA0147.1'
p861
(ipssm
pssm
p862
(dp863
g5
S'0.01'
p864
sg7
Nsg8
S'100'
p865
sg10
S'Myc_MA0147.1'
p866
sg12
(lp867
(lp868
F0.29515418502202645
aF0.42290748898678415
aF0.15859030837004406
aF0.12334801762114538
aa(lp869
F0.14977973568281938
aF0.23348017621145375
aF0.57268722466960353
aF0.04405286343612335
aa(lp870
F0.035242290748898682
aF0.96475770925110127
aF0
aF0
aa(lp871
F0.95594713656387664
aF0.017621145374449341
aF0.022026431718061675
aF0.0044052863436123352
aa(lp872
F0
aF0.93392070484581502
aF0.013215859030837005
aF0.052863436123348019
aa(lp873
F0.083700440528634359
aF0.0088105726872246704
aF0.89867841409691629
aF0.0088105726872246704
aa(lp874
F0.039647577092511016
aF0.19383259911894274
aF0
aF0.76651982378854622
aa(lp875
F0
aF0.0088105726872246704
aF0.95154185022026427
aF0.039647577092511016
aa(lp876
F0
aF0.074889867841409691
aF0.80616740088105732
aF0.11894273127753303
aa(lp877
F0.19823788546255505
aF0.47136563876651982
aF0.10572687224669604
aF0.22466960352422907
aasbsS'RUNX1_MA0002.1'
p878
(ipssm
pssm
p879
(dp880
g5
S'0.01'
p881
sg7
Nsg8
S'100'
p882
sg10
S'RUNX1_MA0002.1'
p883
sg12
(lp884
(lp885
F0.38461538461538464
aF0.076923076923076927
aF0.11538461538461539
aF0.42307692307692307
aa(lp886
F0.46153846153846156
aF0.076923076923076927
aF0.038461538461538464
aF0.42307692307692307
aa(lp887
F0.15384615384615385
aF0.26923076923076922
aF0.038461538461538464
aF0.53846153846153844
aa(lp888
F0.038461538461538464
aF0.038461538461538464
aF0
aF0.92307692307692313
aa(lp889
F0.076923076923076927
aF0
aF0.88461538461538458
aF0.038461538461538464
aa(lp890
F0.076923076923076927
aF0.30769230769230771
aF0
aF0.61538461538461542
aa(lp891
F0
aF0
aF1
aF0
aa(lp892
F0
aF0
aF1
aF0
aa(lp893
F0
aF0.038461538461538464
aF0
aF0.96153846153846156
aa(lp894
F0.30769230769230771
aF0.076923076923076927
aF0
aF0.61538461538461542
aa(lp895
F0.5
aF0.076923076923076927
aF0.15384615384615385
aF0.26923076923076922
aasbsS'ELF5_MA0136.1'
p896
(ipssm
pssm
p897
(dp898
g5
S'0.01'
p899
sg7
Nsg8
S'100'
p900
sg10
S'ELF5_MA0136.1'
p901
sg12
(lp902
(lp903
F0.27272727272727271
aF0.20454545454545456
aF0.068181818181818177
aF0.45454545454545453
aa(lp904
F0.65909090909090906
aF0.068181818181818177
aF0.15909090909090909
aF0.11363636363636363
aa(lp905
F0.045454545454545456
aF0.45454545454545453
aF0.11363636363636363
aF0.38636363636363635
aa(lp906
F0.31818181818181818
aF0
aF0.022727272727272728
aF0.65909090909090906
aa(lp907
F0
aF0.022727272727272728
aF0
aF0.97727272727272729
aa(lp908
F0
aF1
aF0
aF0
aa(lp909
F0
aF1
aF0
aF0
aa(lp910
F0.090909090909090912
aF0.068181818181818177
aF0.25
aF0.59090909090909094
aa(lp911
F0.090909090909090912
aF0.18181818181818182
aF0.25
aF0.47727272727272729
aasbsS'Lhx3_MA0135.1'
p912
(ipssm
pssm
p913
(dp914
g5
S'0.01'
p915
sg7
Nsg8
S'100'
p916
sg10
S'Lhx3_MA0135.1'
p917
sg12
(lp918
(lp919
F0.45000000000000001
aF0
aF0.14999999999999999
aF0.40000000000000002
aa(lp920
F0.80000000000000004
aF0.10000000000000001
aF0.10000000000000001
aF0
aa(lp921
F0.94999999999999996
aF0
aF0
aF0.050000000000000003
aa(lp922
F0
aF0
aF0
aF1
aa(lp923
F0
aF0
aF0
aF1
aa(lp924
F0.94999999999999996
aF0
aF0
aF0.050000000000000003
aa(lp925
F1
aF0
aF0
aF0
aa(lp926
F0.10000000000000001
aF0.10000000000000001
aF0
aF0.80000000000000004
aa(lp927
F0
aF0.050000000000000003
aF0
aF0.94999999999999996
aa(lp928
F0.80000000000000004
aF0.050000000000000003
aF0
aF0.14999999999999999
aa(lp929
F0.45000000000000001
aF0
aF0.14999999999999999
aF0.40000000000000002
aa(lp930
F0.10000000000000001
aF0.40000000000000002
aF0
aF0.5
aa(lp931
F0.10000000000000001
aF0.45000000000000001
aF0.14999999999999999
aF0.29999999999999999
aasbsS'TBP_MA0108.1'
p932
(ipssm
pssm
p933
(dp934
g5
S'0.01'
p935
sg7
Nsg8
S'100'
p936
sg10
S'TBP_MA0108.1'
p937
sg12
(lp938
(lp939
F0.15681233933161953
aF0.37275064267352187
aF0.39074550128534702
aF0.079691516709511565
aa(lp940
F0.041131105398457581
aF0.11825192802056556
aF0.046272493573264781
aF0.79434447300771205
aa(lp941
F0.90488431876606679
aF0
aF0.0051413881748071976
aF0.089974293059125965
aa(lp942
F0.0077120822622107968
aF0.02570694087403599
aF0.0051413881748071976
aF0.96143958868894597
aa(lp943
F0.91002570694087404
aF0
aF0.012853470437017995
aF0.077120822622107968
aa(lp944
F0.68894601542416456
aF0
aF0
aF0.3110539845758355
aa(lp945
F0.94986807387862793
aF0.0079155672823219003
aF0.026385224274406333
aF0.015831134564643801
aa(lp946
F0.57069408740359895
aF0.0051413881748071976
aF0.11311053984575835
aF0.3110539845758355
aa(lp947
F0.39845758354755784
aF0.11311053984575835
aF0.40359897172236503
aF0.084832904884318772
aa(lp948
F0.14395886889460155
aF0.34704370179948585
aF0.38560411311053983
aF0.12339331619537275
aa(lp949
F0.21336760925449871
aF0.37789203084832906
aF0.32904884318766064
aF0.079691516709511565
aa(lp950
F0.21079691516709512
aF0.32647814910025708
aF0.32904884318766064
aF0.13367609254498714
aa(lp951
F0.21079691516709512
aF0.30334190231362468
aF0.32904884318766064
aF0.15681233933161953
aa(lp952
F0.17480719794344474
aF0.27506426735218509
aF0.35732647814910024
aF0.19280205655526991
aa(lp953
F0.19794344473007713
aF0.25964010282776351
aF0.35989717223650386
aF0.18251928020565553
aasbsS'TBP_MA0108.2'
p954
(ipssm
pssm
p955
(dp956
g5
S'0.01'
p957
sg7
Nsg8
S'100'
p958
sg10
S'TBP_MA0108.2'
p959
sg12
(lp960
(lp961
F0.15681233933161953
aF0.37275064267352187
aF0.39074550128534702
aF0.079691516709511565
aa(lp962
F0.041131105398457581
aF0.11825192802056556
aF0.046272493573264781
aF0.79434447300771205
aa(lp963
F0.90488431876606679
aF0
aF0.0051413881748071976
aF0.089974293059125965
aa(lp964
F0.0077120822622107968
aF0.02570694087403599
aF0.0051413881748071976
aF0.96143958868894597
aa(lp965
F0.91002570694087404
aF0
aF0.012853470437017995
aF0.077120822622107968
aa(lp966
F0.68894601542416456
aF0
aF0
aF0.3110539845758355
aa(lp967
F0.92544987146529567
aF0.0077120822622107968
aF0.051413881748071981
aF0.015424164524421594
aa(lp968
F0.57069408740359895
aF0.0051413881748071976
aF0.11311053984575835
aF0.3110539845758355
aa(lp969
F0.39845758354755784
aF0.11311053984575835
aF0.40359897172236503
aF0.084832904884318772
aa(lp970
F0.14395886889460155
aF0.34704370179948585
aF0.38560411311053983
aF0.12339331619537275
aa(lp971
F0.21336760925449871
aF0.37789203084832906
aF0.32904884318766064
aF0.079691516709511565
aa(lp972
F0.21079691516709512
aF0.32647814910025708
aF0.32904884318766064
aF0.13367609254498714
aa(lp973
F0.21079691516709512
aF0.30334190231362468
aF0.32904884318766064
aF0.15681233933161953
aa(lp974
F0.17480719794344474
aF0.27506426735218509
aF0.35732647814910024
aF0.19280205655526991
aa(lp975
F0.19794344473007713
aF0.25964010282776351
aF0.35989717223650386
aF0.18251928020565553
aasbsS'Arnt::Ahr_MA0006.1'
p976
(ipssm
pssm
p977
(dp978
g5
S'0.01'
p979
sg7
Nsg8
S'100'
p980
sg10
S'Arnt::Ahr_MA0006.1'
p981
sg12
(lp982
(lp983
F0.125
aF0.33333333333333331
aF0.083333333333333329
aF0.45833333333333331
aa(lp984
F0
aF0
aF0.95833333333333337
aF0.041666666666666664
aa(lp985
F0
aF0.95833333333333337
aF0
aF0.041666666666666664
aa(lp986
F0
aF0
aF0.95833333333333337
aF0.041666666666666664
aa(lp987
F0
aF0
aF0
aF1
aa(lp988
F0
aF0
aF1
aF0
aasbsS'TLX1::NFIC_MA0119.1'
p989
(ipssm
pssm
p990
(dp991
g5
S'0.01'
p992
sg7
Nsg8
S'100'
p993
sg10
S'TLX1::NFIC_MA0119.1'
p994
sg12
(lp995
(lp996
F0
aF0
aF0
aF1
aa(lp997
F0
aF0
aF1
aF0
aa(lp998
F0
aF0
aF1
aF0
aa(lp999
F0
aF1
aF0
aF0
aa(lp1000
F0.875
aF0.0625
aF0
aF0.0625
aa(lp1001
F0.125
aF0.5
aF0.3125
aF0.0625
aa(lp1002
F0.125
aF0.5
aF0.25
aF0.125
aa(lp1003
F0.4375
aF0.0625
aF0.3125
aF0.1875
aa(lp1004
F0.25
aF0.1875
aF0.125
aF0.4375
aa(lp1005
F0
aF0
aF1
aF0
aa(lp1006
F0
aF1
aF0
aF0
aa(lp1007
F0
aF1
aF0
aF0
aa(lp1008
F1
aF0
aF0
aF0
aa(lp1009
F0.875
aF0
aF0.0625
aF0.0625
aasbsS'Foxq1_MA0040.1'
p1010
(ipssm
pssm
p1011
(dp1012
g5
S'0.01'
p1013
sg7
Nsg8
S'100'
p1014
sg10
S'Foxq1_MA0040.1'
p1015
sg12
(lp1016
(lp1017
F0.22222222222222221
aF0.22222222222222221
aF0.16666666666666666
aF0.3888888888888889
aa(lp1018
F0.72222222222222221
aF0.055555555555555552
aF0.16666666666666666
aF0.055555555555555552
aa(lp1019
F0.27777777777777779
aF0.1111111111111111
aF0
aF0.61111111111111116
aa(lp1020
F0.16666666666666666
aF0
aF0
aF0.83333333333333337
aa(lp1021
F0
aF0
aF1
aF0
aa(lp1022
F0
aF0
aF0
aF1
aa(lp1023
F0
aF0
aF0
aF1
aa(lp1024
F0
aF0
aF0
aF1
aa(lp1025
F0.94444444444444442
aF0
aF0.055555555555555552
aF0
aa(lp1026
F0
aF0.055555555555555552
aF0.22222222222222221
aF0.72222222222222221
aa(lp1027
F0.33333333333333331
aF0
aF0.16666666666666666
aF0.5
aasbsS'SP1_MA0079.1'
p1028
(ipssm
pssm
p1029
(dp1030
g5
S'0.01'
p1031
sg7
Nsg8
S'100'
p1032
sg10
S'SP1_MA0079.1'
p1033
sg12
(lp1034
(lp1035
F0.125
aF0.125
aF0.5
aF0.25
aa(lp1036
F0.25
aF0.125
aF0.5
aF0.125
aa(lp1037
F0
aF0
aF1
aF0
aa(lp1038
F0
aF0
aF1
aF0
aa(lp1039
F0
aF0.625
aF0.25
aF0.125
aa(lp1040
F0.25
aF0
aF0.5
aF0.25
aa(lp1041
F0
aF0.125
aF0.625
aF0.25
aa(lp1042
F0
aF0
aF0.75
aF0.25
aa(lp1043
F0.125
aF0.125
aF0.75
aF0
aa(lp1044
F0.25
aF0
aF0
aF0.75
aasbsS'SP1_MA0079.2'
p1045
(ipssm
pssm
p1046
(dp1047
g5
S'0.01'
p1048
sg7
Nsg8
S'100'
p1049
sg10
S'SP1_MA0079.2'
p1050
sg12
(lp1051
(lp1052
F0
aF0.91428571428571426
aF0.028571428571428571
aF0.057142857142857141
aa(lp1053
F0
aF0.8571428571428571
aF0.028571428571428571
aF0.11428571428571428
aa(lp1054
F0
aF1
aF0
aF0
aa(lp1055
F0.11428571428571428
aF0.77142857142857146
aF0
aF0.11428571428571428
aa(lp1056
F0.057142857142857141
aF0.14285714285714285
aF0.42857142857142855
aF0.37142857142857144
aa(lp1057
F0
aF0.80000000000000004
aF0.028571428571428571
aF0.17142857142857143
aa(lp1058
F0.028571428571428571
aF0.88571428571428568
aF0
aF0.085714285714285715
aa(lp1059
F0
aF0.68571428571428572
aF0.085714285714285715
aF0.22857142857142856
aa(lp1060
F0.17142857142857143
aF0.7142857142857143
aF0
aF0.11428571428571428
aa(lp1061
F0.085714285714285715
aF0.74285714285714288
aF0.085714285714285715
aF0.085714285714285715
aasbsS'EWSR1-FLI1_MA0149.1'
p1062
(ipssm
pssm
p1063
(dp1064
g5
S'0.01'
p1065
sg7
Nsg8
S'100'
p1066
sg10
S'EWSR1-FLI1_MA0149.1'
p1067
sg12
(lp1068
(lp1069
F0
aF0
aF1
aF0
aa(lp1070
F0.019047619047619049
aF0
aF0.98095238095238091
aF0
aa(lp1071
F0.99047619047619051
aF0
aF0.0095238095238095247
aF0
aa(lp1072
F0.99047619047619051
aF0
aF0.0095238095238095247
aF0
aa(lp1073
F0.0095238095238095247
aF0
aF0.99047619047619051
aF0
aa(lp1074
F0.019047619047619049
aF0
aF0.97142857142857142
aF0.0095238095238095247
aa(lp1075
F0.98095238095238091
aF0
aF0.019047619047619049
aF0
aa(lp1076
F0.97142857142857142
aF0
aF0.028571428571428571
aF0
aa(lp1077
F0
aF0
aF0.99047619047619051
aF0.0095238095238095247
aa(lp1078
F0
aF0.019047619047619049
aF0.98095238095238091
aF0
aa(lp1079
F0.94285714285714284
aF0.038095238095238099
aF0.019047619047619049
aF0
aa(lp1080
F1
aF0
aF0
aF0
aa(lp1081
F0
aF0
aF1
aF0
aa(lp1082
F0
aF0.019047619047619049
aF0.98095238095238091
aF0
aa(lp1083
F0.95238095238095233
aF0.028571428571428571
aF0
aF0.019047619047619049
aa(lp1084
F0.97142857142857142
aF0
aF0.019047619047619049
aF0.0095238095238095247
aa(lp1085
F0.047619047619047616
aF0
aF0.92380952380952386
aF0.028571428571428571
aa(lp1086
F0.028571428571428571
aF0.028571428571428571
aF0.92380952380952386
aF0.019047619047619049
aasbsS'Gfi_MA0038.1'
p1087
(ipssm
pssm
p1088
(dp1089
g5
S'0.01'
p1090
sg7
Nsg8
S'100'
p1091
sg10
S'Gfi_MA0038.1'
p1092
sg12
(lp1093
(lp1094
F0.16981132075471697
aF0.37735849056603776
aF0.16981132075471697
aF0.28301886792452829
aa(lp1095
F0.52830188679245282
aF0.30188679245283018
aF0.13207547169811321
aF0.037735849056603772
aa(lp1096
F1
aF0
aF0
aF0
aa(lp1097
F1
aF0
aF0
aF0
aa(lp1098
F0.018867924528301886
aF0
aF0.018867924528301886
aF0.96226415094339623
aa(lp1099
F0.018867924528301886
aF0.98113207547169812
aF0
aF0
aa(lp1100
F0.58490566037735847
aF0.13207547169811321
aF0.037735849056603772
aF0.24528301886792453
aa(lp1101
F0.15094339622641509
aF0.52830188679245282
aF0.20754716981132076
aF0.11320754716981132
aa(lp1102
F0.35849056603773582
aF0.20754716981132076
aF0.037735849056603772
aF0.39622641509433965
aa(lp1103
F0.13207547169811321
aF0.24528301886792453
aF0.52830188679245282
aF0.094339622641509441
aasbsS'Pdx1_MA0132.1'
p1104
(ipssm
pssm
p1105
(dp1106
g5
S'0.01'
p1107
sg7
Nsg8
S'100'
p1108
sg10
S'Pdx1_MA0132.1'
p1109
sg12
(lp1110
(lp1111
F0.032258064516129031
aF0.61290322580645162
aF0.16129032258064516
aF0.19354838709677419
aa(lp1112
F0
aF0
aF0
aF1
aa(lp1113
F1
aF0
aF0
aF0
aa(lp1114
F1
aF0
aF0
aF0
aa(lp1115
F0
aF0
aF0.032258064516129031
aF0.967741935483871
aa(lp1116
F0.032258064516129031
aF0.032258064516129031
aF0.32258064516129031
aF0.61290322580645162
aasbsS'Hand1::Tcfe2a_MA0092.1'
p1117
(ipssm
pssm
p1118
(dp1119
g5
S'0.01'
p1120
sg7
Nsg8
S'100'
p1121
sg10
S'Hand1::Tcfe2a_MA0092.1'
p1122
sg12
(lp1123
(lp1124
F0.13793103448275862
aF0.27586206896551724
aF0.34482758620689657
aF0.2413793103448276
aa(lp1125
F0.34482758620689657
aF0
aF0.51724137931034486
aF0.13793103448275862
aa(lp1126
F0.068965517241379309
aF0.068965517241379309
aF0.034482758620689655
aF0.82758620689655171
aa(lp1127
F0
aF0.96551724137931039
aF0
aF0.034482758620689655
aa(lp1128
F0
aF0
aF0
aF1
aa(lp1129
F0
aF0
aF1
aF0
aa(lp1130
F0
aF0.10344827586206896
aF0.86206896551724133
aF0.034482758620689655
aa(lp1131
F0.31034482758620691
aF0.48275862068965519
aF0.034482758620689655
aF0.17241379310344829
aa(lp1132
F0.55172413793103448
aF0
aF0.10344827586206896
aF0.34482758620689657
aa(lp1133
F0.17241379310344829
aF0.13793103448275862
aF0.13793103448275862
aF0.55172413793103448
aasbsS'RELA_MA0107.1'
p1134
(ipssm
pssm
p1135
(dp1136
g5
S'0.01'
p1137
sg7
Nsg8
S'100'
p1138
sg10
S'RELA_MA0107.1'
p1139
sg12
(lp1140
(lp1141
F0
aF0.22222222222222221
aF0.61111111111111116
aF0.16666666666666666
aa(lp1142
F0
aF0
aF0.94444444444444442
aF0.055555555555555552
aa(lp1143
F0
aF0
aF1
aF0
aa(lp1144
F0.61111111111111116
aF0
aF0.3888888888888889
aF0
aa(lp1145
F0.55555555555555558
aF0.16666666666666666
aF0.22222222222222221
aF0.055555555555555552
aa(lp1146
F0.1111111111111111
aF0
aF0
aF0.88888888888888884
aa(lp1147
F0
aF0
aF0
aF1
aa(lp1148
F0
aF0.1111111111111111
aF0
aF0.88888888888888884
aa(lp1149
F0
aF1
aF0
aF0
aa(lp1150
F0
aF1
aF0
aF0
aasbsS'NFIC_MA0161.1'
p1151
(ipssm
pssm
p1152
(dp1153
g5
S'0.01'
p1154
sg7
Nsg8
S'100'
p1155
sg10
S'NFIC_MA0161.1'
p1156
sg12
(lp1157
(lp1158
F0.051793981481481483
aF0.26504629629629628
aF0.025462962962962962
aF0.6576967592592593
aa(lp1159
F0.01171875
aF0.0096932870370370367
aF0.043402777777777776
aF0.93518518518518523
aa(lp1160
F0.01171875
aF0.0096932870370370367
aF0.9712094907407407
aF0.007378472222222222
aa(lp1161
F0.013165509259259259
aF0.012731481481481481
aF0.96108217592592593
aF0.013020833333333334
aa(lp1162
F0.17737268518518517
aF0.77604166666666663
aF0.023148148148148147
aF0.0234375
aa(lp1163
F0.47714120370370372
aF0.14192708333333334
aF0.17158564814814814
aF0.20934606481481483
aasbsS'Sox5_MA0087.1'
p1164
(ipssm
pssm
p1165
(dp1166
g5
S'0.01'
p1167
sg7
Nsg8
S'100'
p1168
sg10
S'Sox5_MA0087.1'
p1169
sg12
(lp1170
(lp1171
F0.34782608695652173
aF0.17391304347826086
aF0.13043478260869565
aF0.34782608695652173
aa(lp1172
F0.91304347826086951
aF0
aF0.043478260869565216
aF0.043478260869565216
aa(lp1173
F0.95652173913043481
aF0
aF0.043478260869565216
aF0
aa(lp1174
F0
aF0.95652173913043481
aF0
aF0.043478260869565216
aa(lp1175
F1
aF0
aF0
aF0
aa(lp1176
F0.95652173913043481
aF0.043478260869565216
aF0
aF0
aa(lp1177
F0
aF0
aF0
aF1
aasbsS'Zfp423_MA0116.1'
p1178
(ipssm
pssm
p1179
(dp1180
g5
S'0.01'
p1181
sg7
Nsg8
S'100'
p1182
sg10
S'Zfp423_MA0116.1'
p1183
sg12
(lp1184
(lp1185
F0.21212121212121213
aF0.12121212121212122
aF0.66666666666666663
aF0
aa(lp1186
F0
aF0.48484848484848486
aF0.51515151515151514
aF0
aa(lp1187
F0.48484848484848486
aF0.51515151515151514
aF0
aF0
aa(lp1188
F0.51515151515151514
aF0.48484848484848486
aF0
aF0
aa(lp1189
F0
aF1
aF0
aF0
aa(lp1190
F0
aF1
aF0
aF0
aa(lp1191
F0.030303030303030304
aF0.51515151515151514
aF0
aF0.45454545454545453
aa(lp1192
F0.72727272727272729
aF0
aF0
aF0.27272727272727271
aa(lp1193
F0.39393939393939392
aF0
aF0.48484848484848486
aF0.12121212121212122
aa(lp1194
F0
aF0
aF1
aF0
aa(lp1195
F0
aF0
aF1
aF0
aa(lp1196
F0
aF0
aF0.51515151515151514
aF0.48484848484848486
aa(lp1197
F0
aF0
aF0.48484848484848486
aF0.51515151515151514
aa(lp1198
F0
aF0.24242424242424243
aF0.48484848484848486
aF0.27272727272727271
aa(lp1199
F0.33333333333333331
aF0.66666666666666663
aF0
aF0
aasbsS'RUNX1_MA0002.2'
p1200
(ipssm
pssm
p1201
(dp1202
g5
S'0.01'
p1203
sg7
Nsg8
S'100'
p1204
sg10
S'RUNX1_MA0002.2'
p1205
sg12
(lp1206
(lp1207
F0.14349999999999999
aF0.248
aF0.34799999999999998
aF0.26050000000000001
aa(lp1208
F0.11700000000000001
aF0.24249999999999999
aF0.23350000000000001
aF0.40699999999999997
aa(lp1209
F0.061499999999999999
aF0.53600000000000003
aF0.074499999999999997
aF0.32800000000000001
aa(lp1210
F0.028500000000000001
aF0
aF0.0035000000000000001
aF0.96799999999999997
aa(lp1211
F0
aF0.037499999999999999
aF0.93600000000000005
aF0.026499999999999999
aa(lp1212
F0.043499999999999997
aF0.063500000000000001
aF0.035000000000000003
aF0.85799999999999998
aa(lp1213
F0
aF0
aF0.99350000000000005
aF0.0064999999999999997
aa(lp1214
F0.0085000000000000006
aF0.021000000000000001
aF0.92400000000000004
aF0.0465
aa(lp1215
F0.0050000000000000001
aF0.20000000000000001
aF0.1255
aF0.66949999999999998
aa(lp1216
F0.065500000000000003
aF0.23150000000000001
aF0.040500000000000001
aF0.66249999999999998
aa(lp1217
F0.25
aF0.079000000000000001
aF0.14449999999999999
aF0.52649999999999997
aasbsS'MEF2A_MA0052.1'
p1218
(ipssm
pssm
p1219
(dp1220
g5
S'0.01'
p1221
sg7
Nsg8
S'100'
p1222
sg10
S'MEF2A_MA0052.1'
p1223
sg12
(lp1224
(lp1225
F0.017241379310344827
aF0.86206896551724133
aF0
aF0.1206896551724138
aa(lp1226
F0
aF0
aF0
aF1
aa(lp1227
F0.98275862068965514
aF0.017241379310344827
aF0
aF0
aa(lp1228
F0.034482758620689655
aF0.017241379310344827
aF0
aF0.94827586206896552
aa(lp1229
F0.15517241379310345
aF0
aF0
aF0.84482758620689657
aa(lp1230
F0.10344827586206896
aF0
aF0
aF0.89655172413793105
aa(lp1231
F0.63793103448275867
aF0
aF0
aF0.36206896551724138
aa(lp1232
F0.034482758620689655
aF0
aF0
aF0.96551724137931039
aa(lp1233
F0.96551724137931039
aF0
aF0.034482758620689655
aF0
aa(lp1234
F0.10344827586206896
aF0
aF0.86206896551724133
aF0.034482758620689655
aasbsS'PPARG::RXRA_MA0065.2'
p1235
(ipssm
pssm
p1236
(dp1237
g5
S'0.01'
p1238
sg7
Nsg8
S'100'
p1239
sg10
S'PPARG::RXRA_MA0065.2'
p1240
sg12
(lp1241
(lp1242
F0.10968494749124855
aF0.36989498249708286
aF0.3733955659276546
aF0.14702450408401399
aa(lp1243
F0.11771561771561771
aF0.19347319347319347
aF0.14801864801864803
aF0.5407925407925408
aa(lp1244
F0.45348837209302323
aF0.026744186046511628
aF0.42790697674418604
aF0.091860465116279072
aa(lp1245
F0.11614401858304298
aF0.0034843205574912892
aF0.77932636469221839
aF0.10104529616724739
aa(lp1246
F0.16125290023201855
aF0.017401392111368909
aF0.78190255220417637
aF0.039443155452436193
aa(lp1247
F0.16821345707656613
aF0.14965197215777262
aF0.45823665893271459
aF0.22389791183294663
aa(lp1248
F0.082271147161066052
aF0.63383545770567784
aF0.2074159907300116
aF0.076477404403244492
aa(lp1249
F0.94901506373117028
aF0.024333719582850522
aF0.017381228273464659
aF0.0092699884125144842
aa(lp1250
F0.60486674391657014
aF0.055619930475086905
aF0.31286210892236382
aF0.026651216685979143
aa(lp1251
F0.82523148148148151
aF0.0057870370370370367
aF0.15856481481481483
aF0.010416666666666666
aa(lp1252
F0.095017381228273468
aF0.0023174971031286211
aF0.8887601390498262
aF0.013904982618771726
aa(lp1253
F0.047508690614136734
aF0.010428736964078795
aF0.80301274623406715
aF0.13904982618771727
aa(lp1254
F0.025492468134414831
aF0.11471610660486674
aF0.30475086906141369
aF0.5550405561993047
aa(lp1255
F0.062645011600928072
aF0.64385150812064962
aF0.16705336426914152
aF0.12645011600928074
aa(lp1256
F0.78422273781902552
aF0.067285382830626447
aF0.054524361948955914
aF0.093967517401392114
aasbsS'PPARG::RXRA_MA0065.1'
p1257
(ipssm
pssm
p1258
(dp1259
g5
S'0.01'
p1260
sg7
Nsg8
S'100'
p1261
sg10
S'PPARG::RXRA_MA0065.1'
p1262
sg12
(lp1263
(lp1264
F0.24390243902439024
aF0.29268292682926828
aF0.17073170731707318
aF0.29268292682926828
aa(lp1265
F0.17073170731707318
aF0.31707317073170732
aF0.1951219512195122
aF0.31707317073170732
aa(lp1266
F0.46341463414634149
aF0.097560975609756101
aF0.14634146341463414
aF0.29268292682926828
aa(lp1267
F0.31707317073170732
aF0.024390243902439025
aF0.65853658536585369
aF0
aa(lp1268
F0.41463414634146339
aF0
aF0.58536585365853655
aF0
aa(lp1269
F0
aF0
aF1
aF0
aa(lp1270
F0
aF0
aF0.95121951219512191
aF0.04878048780487805
aa(lp1271
F0
aF0.04878048780487805
aF0
aF0.95121951219512191
aa(lp1272
F0.04878048780487805
aF0.90243902439024393
aF0.04878048780487805
aF0
aa(lp1273
F1
aF0
aF0
aF0
aa(lp1274
F1
aF0
aF0
aF0
aa(lp1275
F0.95121951219512191
aF0
aF0.04878048780487805
aF0
aa(lp1276
F0
aF0
aF1
aF0
aa(lp1277
F0
aF0
aF0.95121951219512191
aF0.04878048780487805
aa(lp1278
F0
aF0.04878048780487805
aF0
aF0.95121951219512191
aa(lp1279
F0.04878048780487805
aF0.87804878048780488
aF0.024390243902439025
aF0.04878048780487805
aa(lp1280
F0.92682926829268297
aF0.024390243902439025
aF0.04878048780487805
aF0
aa(lp1281
F0.24390243902439024
aF0.29268292682926828
aF0.097560975609756101
aF0.36585365853658536
aa(lp1282
F0.31707317073170732
aF0.36585365853658536
aF0.21951219512195122
aF0.097560975609756101
aa(lp1283
F0.17073170731707318
aF0.24390243902439024
aF0.29268292682926828
aF0.29268292682926828
aasbsS'Ar_MA0007.1'
p1284
(ipssm
pssm
p1285
(dp1286
g5
S'0.01'
p1287
sg7
Nsg8
S'100'
p1288
sg10
S'Ar_MA0007.1'
p1289
sg12
(lp1290
(lp1291
F0.375
aF0.29166666666666669
aF0.083333333333333329
aF0.25
aa(lp1292
F0.375
aF0.083333333333333329
aF0.125
aF0.41666666666666669
aa(lp1293
F0.45833333333333331
aF0.125
aF0.125
aF0.29166666666666669
aa(lp1294
F0.66666666666666663
aF0.041666666666666664
aF0.29166666666666669
aF0
aa(lp1295
F0
aF0
aF0.91666666666666663
aF0.083333333333333329
aa(lp1296
F0.5
aF0.25
aF0.041666666666666664
aF0.20833333333333334
aa(lp1297
F0.875
aF0.083333333333333329
aF0
aF0.041666666666666664
aa(lp1298
F0
aF1
aF0
aF0
aa(lp1299
F0.625
aF0
aF0.33333333333333331
aF0.041666666666666664
aa(lp1300
F0.16666666666666666
aF0.375
aF0.083333333333333329
aF0.375
aa(lp1301
F0.20833333333333334
aF0.45833333333333331
aF0.083333333333333329
aF0.25
aa(lp1302
F0.25
aF0.375
aF0.375
aF0
aa(lp1303
F0.125
aF0.20833333333333334
aF0.041666666666666664
aF0.625
aa(lp1304
F0
aF0
aF1
aF0
aa(lp1305
F0.16666666666666666
aF0
aF0
aF0.83333333333333337
aa(lp1306
F0.45833333333333331
aF0.20833333333333334
aF0.041666666666666664
aF0.29166666666666669
aa(lp1307
F0.041666666666666664
aF0.91666666666666663
aF0.041666666666666664
aF0
aa(lp1308
F0.125
aF0.66666666666666663
aF0.041666666666666664
aF0.16666666666666666
aa(lp1309
F0.25
aF0.29166666666666669
aF0.20833333333333334
aF0.25
aa(lp1310
F0.25
aF0.20833333333333334
aF0.375
aF0.16666666666666666
aa(lp1311
F0.41666666666666669
aF0.45833333333333331
aF0
aF0.125
aa(lp1312
F0.20833333333333334
aF0.45833333333333331
aF0.25
aF0.083333333333333329
aasbsS'CREB1_MA0018.2'
p1313
(ipssm
pssm
p1314
(dp1315
g5
S'0.01'
p1316
sg7
Nsg8
S'100'
p1317
sg10
S'CREB1_MA0018.2'
p1318
sg12
(lp1319
(lp1320
F0
aF0.090909090909090912
aF0.090909090909090912
aF0.81818181818181823
aa(lp1321
F0
aF0.090909090909090912
aF0.90909090909090906
aF0
aa(lp1322
F1
aF0
aF0
aF0
aa(lp1323
F0
aF0.81818181818181823
aF0.18181818181818182
aF0
aa(lp1324
F0.090909090909090912
aF0
aF0.90909090909090906
aF0
aa(lp1325
F0
aF0.27272727272727271
aF0
aF0.72727272727272729
aa(lp1326
F0.18181818181818182
aF0.63636363636363635
aF0.090909090909090912
aF0.090909090909090912
aa(lp1327
F0.72727272727272729
aF0
aF0.090909090909090912
aF0.18181818181818182
aasbsS'CREB1_MA0018.1'
p1328
(ipssm
pssm
p1329
(dp1330
g5
S'0.01'
p1331
sg7
Nsg8
S'100'
p1332
sg10
S'CREB1_MA0018.1'
p1333
sg12
(lp1334
(lp1335
F0
aF0.4375
aF0.3125
aF0.25
aa(lp1336
F0.1875
aF0.3125
aF0.25
aF0.25
aa(lp1337
F0
aF0.1875
aF0.375
aF0.4375
aa(lp1338
F0.125
aF0.1875
aF0.6875
aF0
aa(lp1339
F0.3125
aF0.0625
aF0.4375
aF0.1875
aa(lp1340
F0
aF0
aF0
aF1
aa(lp1341
F0
aF0
aF0.9375
aF0.0625
aa(lp1342
F1
aF0
aF0
aF0
aa(lp1343
F0
aF1
aF0
aF0
aa(lp1344
F0
aF0
aF1
aF0
aa(lp1345
F0.0625
aF0.3125
aF0
aF0.625
aa(lp1346
F0.3125
aF0.375
aF0.1875
aF0.125
aasbsS'FOXF2_MA0030.1'
p1347
(ipssm
pssm
p1348
(dp1349
g5
S'0.01'
p1350
sg7
Nsg8
S'100'
p1351
sg10
S'FOXF2_MA0030.1'
p1352
sg12
(lp1353
(lp1354
F0.037037037037037035
aF0.37037037037037035
aF0.25925925925925924
aF0.33333333333333331
aa(lp1355
F0.37037037037037035
aF0.25925925925925924
aF0.18518518518518517
aF0.18518518518518517
aa(lp1356
F0.62962962962962965
aF0.14814814814814814
aF0.07407407407407407
aF0.14814814814814814
aa(lp1357
F0.4642857142857143
aF0.17857142857142858
aF0.17857142857142858
aF0.17857142857142858
aa(lp1358
F0.13636363636363635
aF0.5
aF0.36363636363636365
aF0
aa(lp1359
F0.25925925925925924
aF0
aF0.7407407407407407
aF0
aa(lp1360
F0
aF0
aF0
aF1
aa(lp1361
F1
aF0
aF0
aF0
aa(lp1362
F1
aF0
aF0
aF0
aa(lp1363
F1
aF0
aF0
aF0
aa(lp1364
F0
aF0.92592592592592593
aF0
aF0.07407407407407407
aa(lp1365
F1
aF0
aF0
aF0
aa(lp1366
F0.59259259259259256
aF0.14814814814814814
aF0.07407407407407407
aF0.18518518518518517
aa(lp1367
F0.25925925925925924
aF0.14814814814814814
aF0.22222222222222221
aF0.37037037037037035
aasbsS'NHLH1_MA0048.1'
p1368
(ipssm
pssm
p1369
(dp1370
g5
S'0.01'
p1371
sg7
Nsg8
S'100'
p1372
sg10
S'NHLH1_MA0048.1'
p1373
sg12
(lp1374
(lp1375
F0.24074074074074073
aF0.24074074074074073
aF0.31481481481481483
aF0.20370370370370369
aa(lp1376
F0.24074074074074073
aF0.72222222222222221
aF0.037037037037037035
aF0
aa(lp1377
F0.055555555555555552
aF0.092592592592592587
aF0.68518518518518523
aF0.16666666666666666
aa(lp1378
F0.018518518518518517
aF0.98148148148148151
aF0
aF0
aa(lp1379
F1
aF0
aF0
aF0
aa(lp1380
F0.018518518518518517
aF0.018518518518518517
aF0.96296296296296291
aF0
aa(lp1381
F0.018518518518518517
aF0.92592592592592593
aF0.055555555555555552
aF0
aa(lp1382
F0.018518518518518517
aF0.018518518518518517
aF0
aF0.96296296296296291
aa(lp1383
F0
aF0
aF0.98148148148148151
aF0.018518518518518517
aa(lp1384
F0.055555555555555552
aF0.68518518518518523
aF0.14814814814814814
aF0.1111111111111111
aa(lp1385
F0.037037037037037035
aF0
aF0.68518518518518523
aF0.27777777777777779
aa(lp1386
F0.092592592592592587
aF0.31481481481481483
aF0.22222222222222221
aF0.37037037037037035
aasbsS'Nr2e3_MA0164.1'
p1387
(ipssm
pssm
p1388
(dp1389
g5
S'0.01'
p1390
sg7
Nsg8
S'100'
p1391
sg10
S'Nr2e3_MA0164.1'
p1392
sg12
(lp1393
(lp1394
F0.17391304347826086
aF0.52173913043478259
aF0.086956521739130432
aF0.21739130434782608
aa(lp1395
F1
aF0
aF0
aF0
aa(lp1396
F1
aF0
aF0
aF0
aa(lp1397
F0
aF0.043478260869565216
aF0.95652173913043481
aF0
aa(lp1398
F0
aF1
aF0
aF0
aa(lp1399
F0
aF0
aF0
aF1
aa(lp1400
F0
aF0
aF0
aF1
aasbsS'NR3C1_MA0113.1'
p1401
(ipssm
pssm
p1402
(dp1403
g5
S'0.01'
p1404
sg7
Nsg8
S'100'
p1405
sg10
S'NR3C1_MA0113.1'
p1406
sg12
(lp1407
(lp1408
F0.33333333333333331
aF0.22222222222222221
aF0.44444444444444442
aF0
aa(lp1409
F0.44444444444444442
aF0
aF0.55555555555555558
aF0
aa(lp1410
F0.33333333333333331
aF0
aF0.66666666666666663
aF0
aa(lp1411
F0.77777777777777779
aF0
aF0.1111111111111111
aF0.1111111111111111
aa(lp1412
F0.66666666666666663
aF0.1111111111111111
aF0.1111111111111111
aF0.1111111111111111
aa(lp1413
F0.1111111111111111
aF0.66666666666666663
aF0.22222222222222221
aF0
aa(lp1414
F0.88888888888888884
aF0
aF0.1111111111111111
aF0
aa(lp1415
F0.22222222222222221
aF0
aF0.22222222222222221
aF0.55555555555555558
aa(lp1416
F0.33333333333333331
aF0.22222222222222221
aF0
aF0.44444444444444442
aa(lp1417
F0.55555555555555558
aF0.33333333333333331
aF0
aF0.1111111111111111
aa(lp1418
F0.1111111111111111
aF0.33333333333333331
aF0
aF0.55555555555555558
aa(lp1419
F0
aF0
aF0.88888888888888884
aF0.1111111111111111
aa(lp1420
F0.1111111111111111
aF0
aF0
aF0.88888888888888884
aa(lp1421
F0.22222222222222221
aF0.44444444444444442
aF0
aF0.33333333333333331
aa(lp1422
F0
aF0.88888888888888884
aF0.1111111111111111
aF0
aa(lp1423
F0.1111111111111111
aF0.22222222222222221
aF0.1111111111111111
aF0.55555555555555558
aa(lp1424
F0.44444444444444442
aF0
aF0.44444444444444442
aF0.1111111111111111
aa(lp1425
F0.33333333333333331
aF0.1111111111111111
aF0.22222222222222221
aF0.33333333333333331
aasbsS'SRY_MA0084.1'
p1426
(ipssm
pssm
p1427
(dp1428
g5
S'0.01'
p1429
sg7
Nsg8
S'100'
p1430
sg10
S'SRY_MA0084.1'
p1431
sg12
(lp1432
(lp1433
F0.17857142857142858
aF0.17857142857142858
aF0.35714285714285715
aF0.2857142857142857
aa(lp1434
F0.2857142857142857
aF0.10714285714285714
aF0.14285714285714285
aF0.4642857142857143
aa(lp1435
F0.5357142857142857
aF0
aF0.10714285714285714
aF0.35714285714285715
aa(lp1436
F0.6428571428571429
aF0.10714285714285714
aF0.10714285714285714
aF0.14285714285714285
aa(lp1437
F0.8928571428571429
aF0
aF0
aF0.10714285714285714
aa(lp1438
F0
aF0.9285714285714286
aF0
aF0.071428571428571425
aa(lp1439
F1
aF0
aF0
aF0
aa(lp1440
F0.9642857142857143
aF0
aF0.035714285714285712
aF0
aa(lp1441
F0.25
aF0
aF0.071428571428571425
aF0.6785714285714286
aasbsS'IRF1_MA0050.1'
p1442
(ipssm
pssm
p1443
(dp1444
g5
S'0.01'
p1445
sg7
Nsg8
S'100'
p1446
sg10
S'IRF1_MA0050.1'
p1447
sg12
(lp1448
(lp1449
F0.29999999999999999
aF0.20000000000000001
aF0.5
aF0
aa(lp1450
F0.94999999999999996
aF0
aF0.050000000000000003
aF0
aa(lp1451
F0.94999999999999996
aF0
aF0
aF0.050000000000000003
aa(lp1452
F1
aF0
aF0
aF0
aa(lp1453
F0.25
aF0.14999999999999999
aF0.55000000000000004
aF0.050000000000000003
aa(lp1454
F0
aF0.5
aF0
aF0.5
aa(lp1455
F0.050000000000000003
aF0.050000000000000003
aF0.90000000000000002
aF0
aa(lp1456
F1
aF0
aF0
aF0
aa(lp1457
F0.94999999999999996
aF0.050000000000000003
aF0
aF0
aa(lp1458
F1
aF0
aF0
aF0
aa(lp1459
F0.050000000000000003
aF0.65000000000000002
aF0.29999999999999999
aF0
aa(lp1460
F0.050000000000000003
aF0.65000000000000002
aF0.050000000000000003
aF0.25
aasbsS'Myb_MA0100.1'
p1461
(ipssm
pssm
p1462
(dp1463
g5
S'0.01'
p1464
sg7
Nsg8
S'100'
p1465
sg10
S'Myb_MA0100.1'
p1466
sg12
(lp1467
(lp1468
F0.15686274509803921
aF0.078431372549019607
aF0.66666666666666663
aF0.098039215686274508
aa(lp1469
F0.43137254901960786
aF0.019607843137254902
aF0.49019607843137253
aF0.058823529411764705
aa(lp1470
F0.039215686274509803
aF0.94117647058823528
aF0.019607843137254902
aF0
aa(lp1471
F0.31372549019607843
aF0.33333333333333331
aF0.31372549019607843
aF0.039215686274509803
aa(lp1472
F0.019607843137254902
aF0
aF0.98039215686274506
aF0
aa(lp1473
F0.039215686274509803
aF0.019607843137254902
aF0
aF0.94117647058823528
aa(lp1474
F0
aF0
aF0
aF1
aa(lp1475
F0.11764705882352941
aF0
aF0.86274509803921573
aF0.019607843137254902
aasbsS'BRCA1_MA0133.1'
p1476
(ipssm
pssm
p1477
(dp1478
g5
S'0.01'
p1479
sg7
Nsg8
S'100'
p1480
sg10
S'BRCA1_MA0133.1'
p1481
sg12
(lp1482
(lp1483
F0.34883720930232559
aF0.2558139534883721
aF0.23255813953488372
aF0.16279069767441862
aa(lp1484
F0.093023255813953487
aF0.81395348837209303
aF0.046511627906976744
aF0.046511627906976744
aa(lp1485
F0.95348837209302328
aF0.023255813953488372
aF0.023255813953488372
aF0
aa(lp1486
F0.83720930232558144
aF0.046511627906976744
aF0.093023255813953487
aF0.023255813953488372
aa(lp1487
F0.16279069767441862
aF0.67441860465116277
aF0.13953488372093023
aF0.023255813953488372
aa(lp1488
F0.44186046511627908
aF0.32558139534883723
aF0.16279069767441862
aF0.069767441860465115
aa(lp1489
F0.069767441860465115
aF0.51162790697674421
aF0.34883720930232559
aF0.069767441860465115
aasbsS'Pax4_MA0068.1'
p1490
(ipssm
pssm
p1491
(dp1492
g5
S'0.01'
p1493
sg7
Nsg8
S'100'
p1494
sg10
S'Pax4_MA0068.1'
p1495
sg12
(lp1496
(lp1497
F0.33333333333333331
aF0.095238095238095233
aF0.52380952380952384
aF0.047619047619047616
aa(lp1498
F0.95238095238095233
aF0
aF0.047619047619047616
aF0
aa(lp1499
F0.76190476190476186
aF0.095238095238095233
aF0.047619047619047616
aF0.095238095238095233
aa(lp1500
F0.52380952380952384
aF0.047619047619047616
aF0.047619047619047616
aF0.38095238095238093
aa(lp1501
F0.61904761904761907
aF0.047619047619047616
aF0.14285714285714285
aF0.19047619047619047
aa(lp1502
F0.52380952380952384
aF0.14285714285714285
aF0.047619047619047616
aF0.2857142857142857
aa(lp1503
F0.2857142857142857
aF0.047619047619047616
aF0.095238095238095233
aF0.5714285714285714
aa(lp1504
F0.42857142857142855
aF0.047619047619047616
aF0.047619047619047616
aF0.47619047619047616
aa(lp1505
F0.23809523809523808
aF0.14285714285714285
aF0.2857142857142857
aF0.33333333333333331
aa(lp1506
F0.23809523809523808
aF0.52380952380952384
aF0.047619047619047616
aF0.19047619047619047
aa(lp1507
F0.2857142857142857
aF0.52380952380952384
aF0.19047619047619047
aF0
aa(lp1508
F0.33333333333333331
aF0.33333333333333331
aF0.23809523809523808
aF0.095238095238095233
aa(lp1509
F0.38095238095238093
aF0.33333333333333331
aF0.095238095238095233
aF0.19047619047619047
aa(lp1510
F0.2857142857142857
aF0.23809523809523808
aF0.047619047619047616
aF0.42857142857142855
aa(lp1511
F0.47619047619047616
aF0.23809523809523808
aF0.19047619047619047
aF0.095238095238095233
aa(lp1512
F0.19047619047619047
aF0.38095238095238093
aF0.19047619047619047
aF0.23809523809523808
aa(lp1513
F0.14285714285714285
aF0.2857142857142857
aF0.19047619047619047
aF0.38095238095238093
aa(lp1514
F0.33333333333333331
aF0.38095238095238093
aF0.14285714285714285
aF0.14285714285714285
aa(lp1515
F0.19047619047619047
aF0.42857142857142855
aF0.14285714285714285
aF0.23809523809523808
aa(lp1516
F0.42857142857142855
aF0.2857142857142857
aF0.095238095238095233
aF0.19047619047619047
aa(lp1517
F0.23809523809523808
aF0.33333333333333331
aF0.23809523809523808
aF0.19047619047619047
aa(lp1518
F0.23809523809523808
aF0.2857142857142857
aF0.095238095238095233
aF0.38095238095238093
aa(lp1519
F0.33333333333333331
aF0.52380952380952384
aF0
aF0.14285714285714285
aa(lp1520
F0.2857142857142857
aF0.42857142857142855
aF0.047619047619047616
aF0.23809523809523808
aa(lp1521
F0.14285714285714285
aF0.5714285714285714
aF0.095238095238095233
aF0.19047619047619047
aa(lp1522
F0.33333333333333331
aF0.42857142857142855
aF0.095238095238095233
aF0.14285714285714285
aa(lp1523
F0.14285714285714285
aF0.5714285714285714
aF0.095238095238095233
aF0.19047619047619047
aa(lp1524
F0.047619047619047616
aF0.52380952380952384
aF0.14285714285714285
aF0.2857142857142857
aa(lp1525
F0.2857142857142857
aF0.52380952380952384
aF0.047619047619047616
aF0.14285714285714285
aa(lp1526
F0.14285714285714285
aF0.61904761904761907
aF0.095238095238095233
aF0.14285714285714285
aasbsS'NFKB1_MA0105.1'
p1527
(ipssm
pssm
p1528
(dp1529
g5
S'0.01'
p1530
sg7
Nsg8
S'100'
p1531
sg10
S'NFKB1_MA0105.1'
p1532
sg12
(lp1533
(lp1534
F0
aF0
aF1
aF0
aa(lp1535
F0
aF0
aF1
aF0
aa(lp1536
F0
aF0
aF1
aF0
aa(lp1537
F0.1111111111111111
aF0
aF0.88888888888888884
aF0
aa(lp1538
F0.61111111111111116
aF0.055555555555555552
aF0.33333333333333331
aF0
aa(lp1539
F0.27777777777777779
aF0
aF0.1111111111111111
aF0.61111111111111116
aa(lp1540
F0
aF0.27777777777777779
aF0.1111111111111111
aF0.61111111111111116
aa(lp1541
F0
aF0.72222222222222221
aF0
aF0.27777777777777779
aa(lp1542
F0
aF0.94444444444444442
aF0
aF0.055555555555555552
aa(lp1543
F0
aF1
aF0
aF0
aa(lp1544
F0.055555555555555552
aF0.83333333333333337
aF0.055555555555555552
aF0.055555555555555552
aasbsS'GATA2_MA0036.1'
p1545
(ipssm
pssm
p1546
(dp1547
g5
S'0.01'
p1548
sg7
Nsg8
S'100'
p1549
sg10
S'GATA2_MA0036.1'
p1550
sg12
(lp1551
(lp1552
F0.24528301886792453
aF0.24528301886792453
aF0.33962264150943394
aF0.16981132075471697
aa(lp1553
F0
aF0.094339622641509441
aF0.90566037735849059
aF0
aa(lp1554
F0.98113207547169812
aF0
aF0.018867924528301886
aF0
aa(lp1555
F0
aF0
aF0
aF1
aa(lp1556
F0.47169811320754718
aF0.13207547169811321
aF0.28301886792452829
aF0.11320754716981132
aasbsS'GABPA_MA0062.1'
p1557
(ipssm
pssm
p1558
(dp1559
g5
S'0.01'
p1560
sg7
Nsg8
S'100'
p1561
sg10
S'GABPA_MA0062.1'
p1562
sg12
(lp1563
(lp1564
F0.7142857142857143
aF0.14285714285714285
aF0.14285714285714285
aF0
aa(lp1565
F0.14285714285714285
aF0.7142857142857143
aF0.14285714285714285
aF0
aa(lp1566
F0.14285714285714285
aF0.8571428571428571
aF0
aF0
aa(lp1567
F0
aF0
aF1
aF0
aa(lp1568
F0
aF0
aF1
aF0
aa(lp1569
F1
aF0
aF0
aF0
aa(lp1570
F1
aF0
aF0
aF0
aa(lp1571
F0
aF0
aF1
aF0
aa(lp1572
F0.42857142857142855
aF0.14285714285714285
aF0.14285714285714285
aF0.2857142857142857
aa(lp1573
F0
aF0.2857142857142857
aF0.5714285714285714
aF0.14285714285714285
aasbsS'ESR1_MA0112.1'
p1574
(ipssm
pssm
p1575
(dp1576
g5
S'0.01'
p1577
sg7
Nsg8
S'100'
p1578
sg10
S'ESR1_MA0112.1'
p1579
sg12
(lp1580
(lp1581
F0.1111111111111111
aF0.55555555555555558
aF0.1111111111111111
aF0.22222222222222221
aa(lp1582
F0.1111111111111111
aF0.55555555555555558
aF0.1111111111111111
aF0.22222222222222221
aa(lp1583
F0.77777777777777779
aF0.1111111111111111
aF0.1111111111111111
aF0
aa(lp1584
F0.22222222222222221
aF0
aF0.77777777777777779
aF0
aa(lp1585
F0
aF0
aF1
aF0
aa(lp1586
F0
aF0
aF0
aF1
aa(lp1587
F0
aF0.77777777777777779
aF0.22222222222222221
aF0
aa(lp1588
F0.66666666666666663
aF0
aF0.22222222222222221
aF0.1111111111111111
aa(lp1589
F0.1111111111111111
aF0.77777777777777779
aF0.1111111111111111
aF0
aa(lp1590
F0.22222222222222221
aF0.55555555555555558
aF0.1111111111111111
aF0.1111111111111111
aa(lp1591
F0.33333333333333331
aF0.22222222222222221
aF0.44444444444444442
aF0
aa(lp1592
F0.1111111111111111
aF0.1111111111111111
aF0.1111111111111111
aF0.66666666666666663
aa(lp1593
F0.1111111111111111
aF0
aF0.88888888888888884
aF0
aa(lp1594
F0.55555555555555558
aF0.1111111111111111
aF0.33333333333333331
aF0
aa(lp1595
F0
aF0.88888888888888884
aF0
aF0.1111111111111111
aa(lp1596
F0
aF1
aF0
aF0
aa(lp1597
F0.22222222222222221
aF0.44444444444444442
aF0
aF0.33333333333333331
aa(lp1598
F0.33333333333333331
aF0.44444444444444442
aF0.1111111111111111
aF0.1111111111111111
aasbsS'NR2F1_MA0017.1'
p1599
(ipssm
pssm
p1600
(dp1601
g5
S'0.01'
p1602
sg7
Nsg8
S'100'
p1603
sg10
S'NR2F1_MA0017.1'
p1604
sg12
(lp1605
(lp1606
F0
aF0
aF0.15384615384615385
aF0.84615384615384615
aa(lp1607
F0.076923076923076927
aF0
aF0.92307692307692313
aF0
aa(lp1608
F0.92307692307692313
aF0
aF0.076923076923076927
aF0
aa(lp1609
F0.46153846153846156
aF0.53846153846153844
aF0
aF0
aa(lp1610
F0
aF1
aF0
aF0
aa(lp1611
F0
aF0.23076923076923078
aF0
aF0.76923076923076927
aa(lp1612
F0
aF0.15384615384615385
aF0
aF0.84615384615384615
aa(lp1613
F0.076923076923076927
aF0
aF0
aF0.92307692307692313
aa(lp1614
F0.15384615384615385
aF0
aF0.84615384615384615
aF0
aa(lp1615
F0.46153846153846156
aF0.30769230769230771
aF0.23076923076923078
aF0
aa(lp1616
F0.46153846153846156
aF0.38461538461538464
aF0.076923076923076927
aF0.076923076923076927
aa(lp1617
F0.076923076923076927
aF0.76923076923076927
aF0.076923076923076927
aF0.076923076923076927
aa(lp1618
F0.23076923076923078
aF0.46153846153846156
aF0
aF0.30769230769230771
aa(lp1619
F0
aF0.23076923076923078
aF0.23076923076923078
aF0.53846153846153844
aasbsS'YY1_MA0095.1'
p1620
(ipssm
pssm
p1621
(dp1622
g5
S'0.01'
p1623
sg7
Nsg8
S'100'
p1624
sg10
S'YY1_MA0095.1'
p1625
sg12
(lp1626
(lp1627
F0.35294117647058826
aF0.058823529411764705
aF0.41176470588235292
aF0.17647058823529413
aa(lp1628
F0
aF0.94117647058823528
aF0
aF0.058823529411764705
aa(lp1629
F0
aF1
aF0
aF0
aa(lp1630
F1
aF0
aF0
aF0
aa(lp1631
F0
aF0
aF0
aF1
aa(lp1632
F0.17647058823529413
aF0.47058823529411764
aF0.17647058823529413
aF0.17647058823529413
aasbsS'Cebpa_MA0102.1'
p1633
(ipssm
pssm
p1634
(dp1635
g5
S'0.01'
p1636
sg7
Nsg8
S'100'
p1637
sg10
S'Cebpa_MA0102.1'
p1638
sg12
(lp1639
(lp1640
F0.16666666666666666
aF0
aF0
aF0.83333333333333337
aa(lp1641
F0.055555555555555552
aF0.055555555555555552
aF0.22222222222222221
aF0.66666666666666663
aa(lp1642
F0.22222222222222221
aF0.055555555555555552
aF0.33333333333333331
aF0.3888888888888889
aa(lp1643
F0.1111111111111111
aF0.5
aF0.1111111111111111
aF0.27777777777777779
aa(lp1644
F0.22222222222222221
aF0.1111111111111111
aF0.55555555555555558
aF0.1111111111111111
aa(lp1645
F0.1111111111111111
aF0.83333333333333337
aF0
aF0.055555555555555552
aa(lp1646
F1
aF0
aF0
aF0
aa(lp1647
F1
aF0
aF0
aF0
aa(lp1648
F0
aF0.33333333333333331
aF0.1111111111111111
aF0.55555555555555558
aa(lp1649
F0.27777777777777779
aF0.33333333333333331
aF0.27777777777777779
aF0.1111111111111111
aa(lp1650
F0.1111111111111111
aF0.27777777777777779
aF0.16666666666666666
aF0.44444444444444442
aa(lp1651
F0.055555555555555552
aF0.33333333333333331
aF0.27777777777777779
aF0.33333333333333331
aasbsS'NR1H2::RXRA_MA0115.1'
p1652
(ipssm
pssm
p1653
(dp1654
g5
S'0.01'
p1655
sg7
Nsg8
S'100'
p1656
sg10
S'NR1H2::RXRA_MA0115.1'
p1657
sg12
(lp1658
(lp1659
F0.68000000000000005
aF0.20000000000000001
aF0
aF0.12
aa(lp1660
F0.68000000000000005
aF0.040000000000000001
aF0.20000000000000001
aF0.080000000000000002
aa(lp1661
F0.80000000000000004
aF0
aF0.20000000000000001
aF0
aa(lp1662
F0
aF0
aF1
aF0
aa(lp1663
F0
aF0
aF0.95999999999999996
aF0.040000000000000001
aa(lp1664
F0
aF0
aF0
aF1
aa(lp1665
F0
aF1
aF0
aF0
aa(lp1666
F1
aF0
aF0
aF0
aa(lp1667
F0.95999999999999996
aF0
aF0
aF0.040000000000000001
aa(lp1668
F1
aF0
aF0
aF0
aa(lp1669
F0
aF0
aF1
aF0
aa(lp1670
F0
aF0
aF1
aF0
aa(lp1671
F0
aF0
aF0
aF1
aa(lp1672
F0
aF1
aF0
aF0
aa(lp1673
F1
aF0
aF0
aF0
aa(lp1674
F0.80000000000000004
aF0.040000000000000001
aF0.080000000000000002
aF0.080000000000000002
aa(lp1675
F0
aF0.59999999999999998
aF0.23999999999999999
aF0.16
aasbsS'T_MA0009.1'
p1676
(ipssm
pssm
p1677
(dp1678
g5
S'0.01'
p1679
sg7
Nsg8
S'100'
p1680
sg10
S'T_MA0009.1'
p1681
sg12
(lp1682
(lp1683
F0.050000000000000003
aF0.69999999999999996
aF0.20000000000000001
aF0.050000000000000003
aa(lp1684
F0.025000000000000001
aF0.025000000000000001
aF0
aF0.94999999999999996
aa(lp1685
F1
aF0
aF0
aF0
aa(lp1686
F0
aF0
aF1
aF0
aa(lp1687
F0
aF0
aF1
aF0
aa(lp1688
F0
aF0
aF0
aF1
aa(lp1689
F0
aF0
aF1
aF0
aa(lp1690
F0
aF0.050000000000000003
aF0
aF0.94999999999999996
aa(lp1691
F0.025000000000000001
aF0.17499999999999999
aF0.69999999999999996
aF0.10000000000000001
aa(lp1692
F1
aF0
aF0
aF0
aa(lp1693
F0.77500000000000002
aF0.125
aF0
aF0.10000000000000001
aasbsS'Klf4_MA0039.1'
p1694
(ipssm
pssm
p1695
(dp1696
g5
S'0.01'
p1697
sg7
Nsg8
S'100'
p1698
sg10
S'Klf4_MA0039.1'
p1699
sg12
(lp1700
(lp1701
F0.36734693877551022
aF0.18367346938775511
aF0.040816326530612242
aF0.40816326530612246
aa(lp1702
F0.67346938775510201
aF0
aF0.26530612244897961
aF0.061224489795918366
aa(lp1703
F0.61224489795918369
aF0.061224489795918366
aF0.30612244897959184
aF0.020408163265306121
aa(lp1704
F0.46938775510204084
aF0.020408163265306121
aF0.38775510204081631
aF0.12244897959183673
aa(lp1705
F0.26530612244897961
aF0.12244897959183673
aF0.59183673469387754
aF0.020408163265306121
aa(lp1706
F0.40816326530612246
aF0.081632653061224483
aF0.46938775510204084
aF0.040816326530612242
aa(lp1707
F0.73469387755102045
aF0.081632653061224483
aF0.10204081632653061
aF0.081632653061224483
aa(lp1708
F0.65306122448979587
aF0.040816326530612242
aF0.26530612244897961
aF0.040816326530612242
aa(lp1709
F0.26530612244897961
aF0.020408163265306121
aF0.67346938775510201
aF0.040816326530612242
aa(lp1710
F0.040816326530612242
aF0.020408163265306121
aF0.93877551020408168
aF0
aasbsS'TAL1::TCF3_MA0091.1'
p1711
(ipssm
pssm
p1712
(dp1713
g5
S'0.01'
p1714
sg7
Nsg8
S'100'
p1715
sg10
S'TAL1::TCF3_MA0091.1'
p1716
sg12
(lp1717
(lp1718
F0.29545454545454547
aF0.31818181818181818
aF0.18181818181818182
aF0.20454545454545456
aa(lp1719
F0.20454545454545456
aF0.22727272727272727
aF0.45454545454545453
aF0.11363636363636363
aa(lp1720
F0.88636363636363635
aF0
aF0.068181818181818177
aF0.045454545454545456
aa(lp1721
F0.45454545454545453
aF0.54545454545454541
aF0
aF0
aa(lp1722
F0
aF0.97727272727272729
aF0.022727272727272728
aF0
aa(lp1723
F1
aF0
aF0
aF0
aa(lp1724
F0
aF0.022727272727272728
aF0.25
aF0.72727272727272729
aa(lp1725
F0.27272727272727271
aF0.72727272727272729
aF0
aF0
aa(lp1726
F0
aF0
aF0
aF1
aa(lp1727
F0
aF0
aF0.97727272727272729
aF0.022727272727272728
aa(lp1728
F0
aF0.068181818181818177
aF0.45454545454545453
aF0.47727272727272729
aa(lp1729
F0.090909090909090912
aF0.090909090909090912
aF0.045454545454545456
aF0.77272727272727271
aasbsS'Nkx3-2_MA0122.1'
p1730
(ipssm
pssm
p1731
(dp1732
g5
S'0.01'
p1733
sg7
Nsg8
S'100'
p1734
sg10
S'Nkx3-2_MA0122.1'
p1735
sg12
(lp1736
(lp1737
F0.16666666666666666
aF0.29166666666666669
aF0.16666666666666666
aF0.375
aa(lp1738
F0.041666666666666664
aF0.16666666666666666
aF0.20833333333333334
aF0.58333333333333337
aa(lp1739
F0.54166666666666663
aF0.041666666666666664
aF0.29166666666666669
aF0.125
aa(lp1740
F1
aF0
aF0
aF0
aa(lp1741
F0
aF0
aF1
aF0
aa(lp1742
F0
aF0
aF0
aF1
aa(lp1743
F0.25
aF0
aF0.75
aF0
aa(lp1744
F0.16666666666666666
aF0.25
aF0.5
aF0.083333333333333329
aa(lp1745
F0.375
aF0.29166666666666669
aF0.20833333333333334
aF0.125
aasbsS'NF-kappaB_MA0061.1'
p1746
(ipssm
pssm
p1747
(dp1748
g5
S'0.01'
p1749
sg7
Nsg8
S'100'
p1750
sg10
S'NF-kappaB_MA0061.1'
p1751
sg12
(lp1752
(lp1753
F0
aF0
aF1
aF0
aa(lp1754
F0
aF0
aF1
aF0
aa(lp1755
F0.026315789473684209
aF0
aF0.97368421052631582
aF0
aa(lp1756
F0.65789473684210531
aF0
aF0.34210526315789475
aF0
aa(lp1757
F0.5
aF0.34210526315789475
aF0.026315789473684209
aF0.13157894736842105
aa(lp1758
F0.18421052631578946
aF0.026315789473684209
aF0.078947368421052627
aF0.71052631578947367
aa(lp1759
F0.026315789473684209
aF0.052631578947368418
aF0.052631578947368418
aF0.86842105263157898
aa(lp1760
F0.052631578947368418
aF0.44736842105263158
aF0
aF0.5
aa(lp1761
F0.052631578947368418
aF0.92105263157894735
aF0
aF0.026315789473684209
aa(lp1762
F0
aF0.94736842105263153
aF0
aF0.052631578947368418
aasbsS'SPIB_MA0081.1'
p1763
(ipssm
pssm
p1764
(dp1765
g5
S'0.01'
p1766
sg7
Nsg8
S'100'
p1767
sg10
S'SPIB_MA0081.1'
p1768
sg12
(lp1769
(lp1770
F0.63265306122448983
aF0
aF0
aF0.36734693877551022
aa(lp1771
F0.081632653061224483
aF0.2857142857142857
aF0.59183673469387754
aF0.040816326530612242
aa(lp1772
F0.48979591836734693
aF0.32653061224489793
aF0.14285714285714285
aF0.040816326530612242
aa(lp1773
F0.040816326530612242
aF0
aF0.95918367346938771
aF0
aa(lp1774
F0.020408163265306121
aF0
aF0.95918367346938771
aF0.020408163265306121
aa(lp1775
F0.97959183673469385
aF0
aF0
aF0.020408163265306121
aa(lp1776
F0.95918367346938771
aF0
aF0
aF0.040816326530612242
aasbsS'Pax5_MA0014.1'
p1777
(ipssm
pssm
p1778
(dp1779
g5
S'0.01'
p1780
sg7
Nsg8
S'100'
p1781
sg10
S'Pax5_MA0014.1'
p1782
sg12
(lp1783
(lp1784
F0.33333333333333331
aF0.083333333333333329
aF0.33333333333333331
aF0.25
aa(lp1785
F0.33333333333333331
aF0
aF0.66666666666666663
aF0
aa(lp1786
F0.33333333333333331
aF0.25
aF0.25
aF0.16666666666666666
aa(lp1787
F0.083333333333333329
aF0.16666666666666666
aF0.41666666666666669
aF0.33333333333333331
aa(lp1788
F0.16666666666666666
aF0.58333333333333337
aF0.083333333333333329
aF0.16666666666666666
aa(lp1789
F0.58333333333333337
aF0.16666666666666666
aF0.083333333333333329
aF0.16666666666666666
aa(lp1790
F0.16666666666666666
aF0.41666666666666669
aF0.25
aF0.16666666666666666
aa(lp1791
F0
aF0.25
aF0.16666666666666666
aF0.58333333333333337
aa(lp1792
F0.083333333333333329
aF0.16666666666666666
aF0.66666666666666663
aF0.083333333333333329
aa(lp1793
F0.5
aF0.083333333333333329
aF0.25
aF0.16666666666666666
aa(lp1794
F0.5
aF0
aF0.16666666666666666
aF0.33333333333333331
aa(lp1795
F0
aF0
aF1
aF0
aa(lp1796
F0.16666666666666666
aF0.66666666666666663
aF0.083333333333333329
aF0.083333333333333329
aa(lp1797
F0.25
aF0
aF0.75
aF0
aa(lp1798
F0.083333333333333329
aF0
aF0.33333333333333331
aF0.58333333333333337
aa(lp1799
F0.5
aF0.083333333333333329
aF0.41666666666666669
aF0
aa(lp1800
F0.41666666666666669
aF0.083333333333333329
aF0.41666666666666669
aF0.083333333333333329
aa(lp1801
F0.16666666666666666
aF0.83333333333333337
aF0
aF0
aa(lp1802
F0.16666666666666666
aF0.41666666666666669
aF0.41666666666666669
aF0
aa(lp1803
F0.41666666666666669
aF0
aF0.5
aF0.083333333333333329
aasbsS'ZNF354C_MA0130.1'
p1804
(ipssm
pssm
p1805
(dp1806
g5
S'0.01'
p1807
sg7
Nsg8
S'100'
p1808
sg10
S'ZNF354C_MA0130.1'
p1809
sg12
(lp1810
(lp1811
F0.4375
aF0.375
aF0.1875
aF0
aa(lp1812
F0.1875
aF0.125
aF0
aF0.6875
aa(lp1813
F0
aF1
aF0
aF0
aa(lp1814
F0
aF1
aF0
aF0
aa(lp1815
F1
aF0
aF0
aF0
aa(lp1816
F0
aF0.9375
aF0.0625
aF0
aasbsS'ELK1_MA0028.1'
p1817
(ipssm
pssm
p1818
(dp1819
g5
S'0.01'
p1820
sg7
Nsg8
S'100'
p1821
sg10
S'ELK1_MA0028.1'
p1822
sg12
(lp1823
(lp1824
F0.25
aF0.25
aF0.35714285714285715
aF0.14285714285714285
aa(lp1825
F0.35714285714285715
aF0.21428571428571427
aF0.21428571428571427
aF0.21428571428571427
aa(lp1826
F0.32142857142857145
aF0.14285714285714285
aF0.35714285714285715
aF0.17857142857142858
aa(lp1827
F0.17857142857142858
aF0.6785714285714286
aF0.035714285714285712
aF0.10714285714285714
aa(lp1828
F0.071428571428571425
aF0.8571428571428571
aF0.035714285714285712
aF0.035714285714285712
aa(lp1829
F0
aF0
aF0.8571428571428571
aF0.14285714285714285
aa(lp1830
F0.035714285714285712
aF0
aF0.9642857142857143
aF0
aa(lp1831
F0.9642857142857143
aF0
aF0.035714285714285712
aF0
aa(lp1832
F0.75
aF0.17857142857142858
aF0
aF0.071428571428571425
aa(lp1833
F0.4642857142857143
aF0
aF0.5
aF0.035714285714285712
aasbsS'RORA_1_MA0071.1'
p1834
(ipssm
pssm
p1835
(dp1836
g5
S'0.01'
p1837
sg7
Nsg8
S'100'
p1838
sg10
S'RORA_1_MA0071.1'
p1839
sg12
(lp1840
(lp1841
F0.59999999999999998
aF0.040000000000000001
aF0.080000000000000002
aF0.28000000000000003
aa(lp1842
F0.35999999999999999
aF0.040000000000000001
aF0
aF0.59999999999999998
aa(lp1843
F0.23999999999999999
aF0.47999999999999998
aF0.16
aF0.12
aa(lp1844
F0.44
aF0.080000000000000002
aF0.20000000000000001
aF0.28000000000000003
aa(lp1845
F0.83999999999999997
aF0
aF0.16
aF0
aa(lp1846
F0
aF0
aF1
aF0
aa(lp1847
F0
aF0
aF1
aF0
aa(lp1848
F0
aF0
aF0
aF1
aa(lp1849
F0
aF1
aF0
aF0
aa(lp1850
F1
aF0
aF0
aF0
aasbsS'ARID3A_MA0151.1'
p1851
(ipssm
pssm
p1852
(dp1853
g5
S'0.01'
p1854
sg7
Nsg8
S'100'
p1855
sg10
S'ARID3A_MA0151.1'
p1856
sg12
(lp1857
(lp1858
F1
aF0
aF0
aF0
aa(lp1859
F0
aF0
aF0
aF1
aa(lp1860
F0.037037037037037035
aF0.33333333333333331
aF0
aF0.62962962962962965
aa(lp1861
F1
aF0
aF0
aF0
aa(lp1862
F1
aF0
aF0
aF0
aa(lp1863
F0.7407407407407407
aF0
aF0.037037037037037035
aF0.22222222222222221
aasbsS'MYC::MAX_MA0059.1'
p1864
(ipssm
pssm
p1865
(dp1866
g5
S'0.01'
p1867
sg7
Nsg8
S'100'
p1868
sg10
S'MYC::MAX_MA0059.1'
p1869
sg12
(lp1870
(lp1871
F0.33333333333333331
aF0.047619047619047616
aF0.42857142857142855
aF0.19047619047619047
aa(lp1872
F0.7142857142857143
aF0.047619047619047616
aF0.19047619047619047
aF0.047619047619047616
aa(lp1873
F0.095238095238095233
aF0.42857142857142855
aF0.42857142857142855
aF0.047619047619047616
aa(lp1874
F0.047619047619047616
aF0.95238095238095233
aF0
aF0
aa(lp1875
F1
aF0
aF0
aF0
aa(lp1876
F0
aF0.95238095238095233
aF0
aF0.047619047619047616
aa(lp1877
F0.047619047619047616
aF0
aF0.95238095238095233
aF0
aa(lp1878
F0
aF0.047619047619047616
aF0
aF0.95238095238095233
aa(lp1879
F0
aF0
aF1
aF0
aa(lp1880
F0.047619047619047616
aF0.047619047619047616
aF0.8571428571428571
aF0.047619047619047616
aa(lp1881
F0.14285714285714285
aF0.23809523809523808
aF0
aF0.61904761904761907
aasbsS'NFYA_MA0060.1'
p1882
(ipssm
pssm
p1883
(dp1884
g5
S'0.01'
p1885
sg7
Nsg8
S'100'
p1886
sg10
S'NFYA_MA0060.1'
p1887
sg12
(lp1888
(lp1889
F0.29310344827586204
aF0.31896551724137934
aF0.23275862068965517
aF0.15517241379310345
aa(lp1890
F0.13793103448275862
aF0.28448275862068967
aF0.22413793103448276
aF0.35344827586206895
aa(lp1891
F0.060344827586206899
aF0.43965517241379309
aF0.21551724137931033
aF0.28448275862068967
aa(lp1892
F0.5
aF0.1206896551724138
aF0.35344827586206895
aF0.025862068965517241
aa(lp1893
F0.43965517241379309
aF0.034482758620689655
aF0.48275862068965519
aF0.043103448275862072
aa(lp1894
F0
aF1
aF0
aF0
aa(lp1895
F0.017241379310344827
aF0.97413793103448276
aF0.0086206896551724137
aF0
aa(lp1896
F0.96551724137931039
aF0
aF0.0086206896551724137
aF0.025862068965517241
aa(lp1897
F1
aF0
aF0
aF0
aa(lp1898
F0
aF0.0086206896551724137
aF0
aF0.99137931034482762
aa(lp1899
F0.1206896551724138
aF0.56034482758620685
aF0.28448275862068967
aF0.034482758620689655
aa(lp1900
F0.56896551724137934
aF0.051724137931034482
aF0.36206896551724138
aF0.017241379310344827
aa(lp1901
F0.11206896551724138
aF0.17241379310344829
aF0.62931034482758619
aF0.086206896551724144
aa(lp1902
F0.33620689655172414
aF0.37068965517241381
aF0.18965517241379309
aF0.10344827586206896
aa(lp1903
F0.31034482758620691
aF0.077586206896551727
aF0.40517241379310343
aF0.20689655172413793
aa(lp1904
F0.21551724137931033
aF0.30172413793103448
aF0.25
aF0.23275862068965517
aasbsS'HOXA5_MA0158.1'
p1905
(ipssm
pssm
p1906
(dp1907
g5
S'0.01'
p1908
sg7
Nsg8
S'100'
p1909
sg10
S'HOXA5_MA0158.1'
p1910
sg12
(lp1911
(lp1912
F0.13333333333333333
aF0.8666666666666667
aF0
aF0
aa(lp1913
F0.4375
aF0
aF0.3125
aF0.25
aa(lp1914
F0
aF0.4375
aF0.3125
aF0.25
aa(lp1915
F0.375
aF0
aF0.0625
aF0.5625
aa(lp1916
F0.875
aF0
aF0
aF0.125
aa(lp1917
F0.875
aF0
aF0.125
aF0
aa(lp1918
F0
aF0
aF0
aF1
aa(lp1919
F0
aF0.0625
aF0.375
aF0.5625
aasbsS'Foxd3_MA0041.1'
p1920
(ipssm
pssm
p1921
(dp1922
g5
S'0.01'
p1923
sg7
Nsg8
S'100'
p1924
sg10
S'Foxd3_MA0041.1'
p1925
sg12
(lp1926
(lp1927
F0.23404255319148937
aF0.063829787234042548
aF0.55319148936170215
aF0.14893617021276595
aa(lp1928
F0.63829787234042556
aF0.042553191489361701
aF0
aF0.31914893617021278
aa(lp1929
F0.51063829787234039
aF0.021276595744680851
aF0
aF0.46808510638297873
aa(lp1930
F0.021276595744680851
aF0.085106382978723402
aF0
aF0.8936170212765957
aa(lp1931
F0.25531914893617019
aF0
aF0.72340425531914898
aF0.021276595744680851
aa(lp1932
F0
aF0
aF0
aF1
aa(lp1933
F0.021276595744680851
aF0
aF0
aF0.97872340425531912
aa(lp1934
F0.10638297872340426
aF0
aF0.21276595744680851
aF0.68085106382978722
aa(lp1935
F0.2978723404255319
aF0
aF0.44680851063829785
aF0.25531914893617019
aa(lp1936
F0.1276595744680851
aF0.14893617021276595
aF0
aF0.72340425531914898
aa(lp1937
F0.021276595744680851
aF0.042553191489361701
aF0.085106382978723402
aF0.85106382978723405
aa(lp1938
F0
aF0.25531914893617019
aF0
aF0.74468085106382975
aasbsS'En1_MA0027.1'
p1939
(ipssm
pssm
p1940
(dp1941
g5
S'0.01'
p1942
sg7
Nsg8
S'100'
p1943
sg10
S'En1_MA0027.1'
p1944
sg12
(lp1945
(lp1946
F0.40000000000000002
aF0.10000000000000001
aF0.20000000000000001
aF0.29999999999999999
aa(lp1947
F0.5
aF0.20000000000000001
aF0.20000000000000001
aF0.10000000000000001
aa(lp1948
F0.29999999999999999
aF0
aF0.69999999999999996
aF0
aa(lp1949
F0
aF0
aF0.20000000000000001
aF0.80000000000000004
aa(lp1950
F0.40000000000000002
aF0
aF0.29999999999999999
aF0.29999999999999999
aa(lp1951
F0.29999999999999999
aF0
aF0.69999999999999996
aF0
aa(lp1952
F0.29999999999999999
aF0
aF0
aF0.69999999999999996
aa(lp1953
F0.20000000000000001
aF0.10000000000000001
aF0.40000000000000002
aF0.29999999999999999
aa(lp1954
F0.10000000000000001
aF0.29999999999999999
aF0.29999999999999999
aF0.29999999999999999
aa(lp1955
F0.10000000000000001
aF0.40000000000000002
aF0.10000000000000001
aF0.40000000000000002
aa(lp1956
F0.10000000000000001
aF0.59999999999999998
aF0.10000000000000001
aF0.20000000000000001
aasbsS'Nobox_MA0125.1'
p1957
(ipssm
pssm
p1958
(dp1959
g5
S'0.01'
p1960
sg7
Nsg8
S'100'
p1961
sg10
S'Nobox_MA0125.1'
p1962
sg12
(lp1963
(lp1964
F0
aF0.026315789473684209
aF0
aF0.97368421052631582
aa(lp1965
F0.94736842105263153
aF0
aF0
aF0.052631578947368418
aa(lp1966
F1
aF0
aF0
aF0
aa(lp1967
F0.026315789473684209
aF0.026315789473684209
aF0.052631578947368418
aF0.89473684210526316
aa(lp1968
F0.052631578947368418
aF0
aF0.10526315789473684
aF0.84210526315789469
aa(lp1969
F0.39473684210526316
aF0
aF0.57894736842105265
aF0.026315789473684209
aa(lp1970
F0.10526315789473684
aF0.31578947368421051
aF0.47368421052631576
aF0.10526315789473684
aa(lp1971
F0.052631578947368418
aF0.34210526315789475
aF0.15789473684210525
aF0.44736842105263158
aasbsS'PPARG_MA0066.1'
p1972
(ipssm
pssm
p1973
(dp1974
g5
S'0.01'
p1975
sg7
Nsg8
S'100'
p1976
sg10
S'PPARG_MA0066.1'
p1977
sg12
(lp1978
(lp1979
F0.10714285714285714
aF0.2857142857142857
aF0.5
aF0.10714285714285714
aa(lp1980
F0.10714285714285714
aF0
aF0
aF0.8928571428571429
aa(lp1981
F0.6785714285714286
aF0
aF0.32142857142857145
aF0
aa(lp1982
F0
aF0.035714285714285712
aF0.9642857142857143
aF0
aa(lp1983
F0.035714285714285712
aF0
aF0.9285714285714286
aF0.035714285714285712
aa(lp1984
F0
aF0.035714285714285712
aF0.14285714285714285
aF0.8214285714285714
aa(lp1985
F0.071428571428571425
aF0.8214285714285714
aF0.10714285714285714
aF0
aa(lp1986
F0.9285714285714286
aF0.035714285714285712
aF0
aF0.035714285714285712
aa(lp1987
F0.17857142857142858
aF0.5357142857142857
aF0.14285714285714285
aF0.14285714285714285
aa(lp1988
F0.17857142857142858
aF0.25
aF0.35714285714285715
aF0.21428571428571427
aa(lp1989
F0.14285714285714285
aF0.071428571428571425
aF0.6428571428571429
aF0.14285714285714285
aa(lp1990
F0.035714285714285712
aF0
aF0.071428571428571425
aF0.8928571428571429
aa(lp1991
F0.071428571428571425
aF0.17857142857142858
aF0.7142857142857143
aF0.035714285714285712
aa(lp1992
F0.7857142857142857
aF0.17857142857142858
aF0
aF0.035714285714285712
aa(lp1993
F0.035714285714285712
aF0.9642857142857143
aF0
aF0
aa(lp1994
F0
aF0.8928571428571429
aF0
aF0.10714285714285714
aa(lp1995
F0.10714285714285714
aF0.42857142857142855
aF0
aF0.4642857142857143
aa(lp1996
F0.7857142857142857
aF0.17857142857142858
aF0
aF0.035714285714285712
aa(lp1997
F0.17857142857142858
aF0.42857142857142855
aF0.21428571428571427
aF0.17857142857142858
aa(lp1998
F0.25
aF0
aF0.035714285714285712
aF0.7142857142857143
aasbsS'Ddit3::Cebpa_MA0019.1'
p1999
(ipssm
pssm
p2000
(dp2001
g5
S'0.01'
p2002
sg7
Nsg8
S'100'
p2003
sg10
S'Ddit3::Cebpa_MA0019.1'
p2004
sg12
(lp2005
(lp2006
F0.35897435897435898
aF0.17948717948717949
aF0.30769230769230771
aF0.15384615384615385
aa(lp2007
F0.28205128205128205
aF0.17948717948717949
aF0.35897435897435898
aF0.17948717948717949
aa(lp2008
F0.46153846153846156
aF0.076923076923076927
aF0.38461538461538464
aF0.076923076923076927
aa(lp2009
F0
aF0.02564102564102564
aF0
aF0.97435897435897434
aa(lp2010
F0
aF0
aF0.97435897435897434
aF0.02564102564102564
aa(lp2011
F0.10256410256410256
aF0.84615384615384615
aF0
aF0.05128205128205128
aa(lp2012
F0.97435897435897434
aF0.02564102564102564
aF0
aF0
aa(lp2013
F0.92307692307692313
aF0.05128205128205128
aF0.02564102564102564
aF0
aa(lp2014
F0
aF0.15384615384615385
aF0
aF0.84615384615384615
aa(lp2015
F0.35897435897435898
aF0.4358974358974359
aF0.12820512820512819
aF0.076923076923076927
aa(lp2016
F0.10256410256410256
aF0.58974358974358976
aF0.23076923076923078
aF0.076923076923076927
aa(lp2017
F0
aF0.66666666666666663
aF0.15384615384615385
aF0.17948717948717949
aasbsS'FOXD1_MA0031.1'
p2018
(ipssm
pssm
p2019
(dp2020
g5
S'0.01'
p2021
sg7
Nsg8
S'100'
p2022
sg10
S'FOXD1_MA0031.1'
p2023
sg12
(lp2024
(lp2025
F0.050000000000000003
aF0.050000000000000003
aF0.84999999999999998
aF0.050000000000000003
aa(lp2026
F0
aF0
aF0
aF1
aa(lp2027
F0.94999999999999996
aF0.050000000000000003
aF0
aF0
aa(lp2028
F1
aF0
aF0
aF0
aa(lp2029
F0.90000000000000002
aF0.050000000000000003
aF0.050000000000000003
aF0
aa(lp2030
F0.050000000000000003
aF0.90000000000000002
aF0
aF0.050000000000000003
aa(lp2031
F1
aF0
aF0
aF0
aa(lp2032
F0.34999999999999998
aF0.10000000000000001
aF0.14999999999999999
aF0.40000000000000002
aasbsS'NR4A2_MA0160.1'
p2033
(ipssm
pssm
p2034
(dp2035
g5
S'0.01'
p2036
sg7
Nsg8
S'100'
p2037
sg10
S'NR4A2_MA0160.1'
p2038
sg12
(lp2039
(lp2040
F0.61538461538461542
aF0.076923076923076927
aF0.23076923076923078
aF0.076923076923076927
aa(lp2041
F0.9285714285714286
aF0
aF0.071428571428571425
aF0
aa(lp2042
F0
aF0
aF0.9285714285714286
aF0.071428571428571425
aa(lp2043
F0.21428571428571427
aF0
aF0.7857142857142857
aF0
aa(lp2044
F0.14285714285714285
aF0.14285714285714285
aF0
aF0.7142857142857143
aa(lp2045
F0
aF0.9285714285714286
aF0
aF0.071428571428571425
aa(lp2046
F1
aF0
aF0
aF0
aa(lp2047
F0.23076923076923078
aF0.61538461538461542
aF0.15384615384615385
aF0
aasbsS'CEBPA_MA0102.2'
p2048
(ipssm
pssm
p2049
(dp2050
g5
S'0.01'
p2051
sg7
Nsg8
S'100'
p2052
sg10
S'CEBPA_MA0102.2'
p2053
sg12
(lp2054
(lp2055
F0.16666666666666666
aF0
aF0
aF0.83333333333333337
aa(lp2056
F0.055555555555555552
aF0.055555555555555552
aF0.22222222222222221
aF0.66666666666666663
aa(lp2057
F0.22222222222222221
aF0.055555555555555552
aF0.33333333333333331
aF0.3888888888888889
aa(lp2058
F0.1111111111111111
aF0.5
aF0.1111111111111111
aF0.27777777777777779
aa(lp2059
F0.22222222222222221
aF0.1111111111111111
aF0.55555555555555558
aF0.1111111111111111
aa(lp2060
F0.1111111111111111
aF0.83333333333333337
aF0
aF0.055555555555555552
aa(lp2061
F1
aF0
aF0
aF0
aa(lp2062
F1
aF0
aF0
aF0
aa(lp2063
F0
aF0.33333333333333331
aF0.1111111111111111
aF0.55555555555555558
aasbsS'NFATC2_MA0152.1'
p2064
(ipssm
pssm
p2065
(dp2066
g5
S'0.01'
p2067
sg7
Nsg8
S'100'
p2068
sg10
S'NFATC2_MA0152.1'
p2069
sg12
(lp2070
(lp2071
F0.11538461538461539
aF0.038461538461538464
aF0.076923076923076927
aF0.76923076923076927
aa(lp2072
F0.038461538461538464
aF0.076923076923076927
aF0.076923076923076927
aF0.80769230769230771
aa(lp2073
F0.038461538461538464
aF0.038461538461538464
aF0
aF0.92307692307692313
aa(lp2074
F0
aF0
aF0
aF1
aa(lp2075
F0.038461538461538464
aF0.96153846153846156
aF0
aF0
aa(lp2076
F0
aF1
aF0
aF0
aa(lp2077
F0.69230769230769229
aF0.11538461538461539
aF0.038461538461538464
aF0.15384615384615385
aasbsS'Pou5f1_MA0142.1'
p2078
(ipssm
pssm
p2079
(dp2080
g5
S'0.01'
p2081
sg7
Nsg8
S'100'
p2082
sg10
S'Pou5f1_MA0142.1'
p2083
sg12
(lp2084
(lp2085
F0.046187683284457479
aF0.62023460410557185
aF0.048387096774193547
aF0.28519061583577715
aa(lp2086
F0.42386530014641288
aF0.0424597364568082
aF0.020497803806734993
aF0.51317715959004395
aa(lp2087
F0.0080468178493050477
aF0.036576444769568395
aF0.026335040234089245
aF0.92904169714703733
aa(lp2088
F0.034331628926223517
aF0.0087655222790357923
aF0.057706355003652302
aF0.89919649379108835
aa(lp2089
F0.086194302410518633
aF0.26515704894083275
aF0.60262965668371071
aF0.04601899196493791
aa(lp2090
F0.30314097881665447
aF0.013148283418553688
aF0.021183345507669833
aF0.66252739225712198
aa(lp2091
F0.15047479912344777
aF0.266617969320672
aF0.13586559532505479
aF0.44704163623082543
aa(lp2092
F0.90211833455076695
aF0.021913805697589481
aF0.017531044558071585
aF0.058436815193571953
aa(lp2093
F0.01241782322863404
aF0.0036523009495982471
aF0.01095690284879474
aF0.97297297297297303
aa(lp2094
F0.0073046018991964941
aF0.01168736303871439
aF0.90504017531044556
aF0.075967859751643538
aa(lp2095
F0.01023391812865497
aF0.7521929824561403
aF0.094298245614035089
aF0.14327485380116958
aa(lp2096
F0.76923076923076927
aF0.011721611721611722
aF0.02197802197802198
aF0.19706959706959706
aa(lp2097
F0.65124816446402345
aF0.049926578560939794
aF0.23127753303964757
aF0.067547723935389131
aa(lp2098
F0.88170462894930202
aF0.024246877296105803
aF0.055106539309331376
aF0.038941954445260836
aa(lp2099
F0.14548126377663484
aF0.087435709037472442
aF0.1520940484937546
aF0.61498897869213809
aasbsS'FOXO3_MA0157.1'
p2100
(ipssm
pssm
p2101
(dp2102
g5
S'0.01'
p2103
sg7
Nsg8
S'100'
p2104
sg10
S'FOXO3_MA0157.1'
p2105
sg12
(lp2106
(lp2107
F0
aF0
aF0.38461538461538464
aF0.61538461538461542
aa(lp2108
F0.076923076923076927
aF0.15384615384615385
aF0.76923076923076927
aF0
aa(lp2109
F0.23076923076923078
aF0
aF0.076923076923076927
aF0.69230769230769229
aa(lp2110
F1
aF0
aF0
aF0
aa(lp2111
F0.92307692307692313
aF0.076923076923076927
aF0
aF0
aa(lp2112
F1
aF0
aF0
aF0
aa(lp2113
F0
aF0.92307692307692313
aF0
aF0.076923076923076927
aa(lp2114
F0.92307692307692313
aF0
aF0
aF0.076923076923076927
aasbsS'Tal1::Gata1_MA0140.1'
p2115
(ipssm
pssm
p2116
(dp2117
g5
S'0.01'
p2118
sg7
Nsg8
S'100'
p2119
sg10
S'Tal1::Gata1_MA0140.1'
p2120
sg12
(lp2121
(lp2122
F0.13596193065941536
aF0.45173351461590755
aF0.21006118286879674
aF0.20224337185588034
aa(lp2123
F0.08871515975526853
aF0.15091774303195105
aF0.17675050985723997
aF0.58361658735554045
aa(lp2124
F0.044497282608695655
aF0.06182065217391304
aF0.65251358695652173
aF0.24116847826086957
aa(lp2125
F0.089983022071307303
aF0.25331069609507639
aF0.41697792869269951
aF0.23972835314091681
aa(lp2126
F0.22716468590831917
aF0.21561969439728354
aF0.26315789473684209
aF0.29405772495755517
aa(lp2127
F0.23803056027164685
aF0.23327674023769099
aF0.30662139219015278
aF0.22207130730050934
aa(lp2128
F0.22539035980991173
aF0.25288526816021722
aF0.318397827562797
aF0.20332654446707399
aa(lp2129
F0.24194095690532746
aF0.23719036308109942
aF0.3023413640990838
aF0.21852731591448932
aa(lp2130
F0.24889793150220413
aF0.22448287555103424
aF0.29230247541539506
aF0.23431671753136657
aa(lp2131
F0.3380855397148676
aF0.13815342837746097
aF0.31907671418873046
aF0.20468431771894094
aa(lp2132
F0.17894736842105263
aF0.39796264855687608
aF0.30594227504244481
aF0.11714770797962648
aa(lp2133
F0.66474380726162197
aF0.010519172039362062
aF0.012555140821174076
aF0.31218187987784185
aa(lp2134
F0.0010183299389002036
aF0.0023761031907671417
aF0.99660556687033264
aF0
aa(lp2135
F0.99355276552426197
aF0.0023752969121140144
aF0.00067865626060400412
aF0.0033932813030200203
aa(lp2136
F0.0054329371816638373
aF0.0088285229202037345
aF0.010186757215619695
aF0.97555178268251275
aa(lp2137
F0.94121644580360175
aF0.0020387359836901123
aF0.0078151546041454294
aF0.048929663608562692
aa(lp2138
F0.80937818552497454
aF0.017329255861365953
aF0.12776078831124701
aF0.045531770302412504
aa(lp2139
F0.18605442176870748
aF0.1870748299319728
aF0.54455782312925172
aF0.082312925170068024
aasbsS'ESR1_MA0112.2'
p2140
(ipssm
pssm
p2141
(dp2142
g5
S'0.01'
p2143
sg7
Nsg8
S'100'
p2144
sg10
S'ESR1_MA0112.2'
p2145
sg12
(lp2146
(lp2147
F0.26124197002141325
aF0.2569593147751606
aF0.32976445396145609
aF0.15203426124197003
aa(lp2148
F0.22863247863247863
aF0.17094017094017094
aF0.3504273504273504
aF0.25
aa(lp2149
F0.13675213675213677
aF0.36965811965811968
aF0.31837606837606836
aF0.1752136752136752
aa(lp2150
F0.17659574468085107
aF0.48723404255319147
aF0.13829787234042554
aF0.19787234042553192
aa(lp2151
F0.28510638297872343
aF0.49361702127659574
aF0.10000000000000001
aF0.12127659574468085
aa(lp2152
F0.65116279069767447
aF0.059196617336152217
aF0.18816067653276955
aF0.1014799154334038
aa(lp2153
F0.075949367088607597
aF0.016877637130801686
aF0.81645569620253167
aF0.090717299578059074
aa(lp2154
F0.040000000000000001
aF0.037894736842105266
aF0.88421052631578945
aF0.037894736842105266
aa(lp2155
F0.069473684210526312
aF0.086315789473684207
aF0.19157894736842104
aF0.65263157894736845
aa(lp2156
F0.0084210526315789472
aF0.82947368421052636
aF0.11157894736842106
aF0.050526315789473683
aa(lp2157
F0.83789473684210525
aF0.02736842105263158
aF0.056842105263157895
aF0.077894736842105267
aa(lp2158
F0.12210526315789473
aF0.52631578947368418
aF0.22526315789473683
aF0.12631578947368421
aa(lp2159
F0.13263157894736843
aF0.58105263157894738
aF0.11157894736842106
aF0.17473684210526316
aa(lp2160
F0.13473684210526315
aF0.54315789473684206
aF0.20421052631578948
aF0.11789473684210526
aa(lp2161
F0.067368421052631577
aF0.040000000000000001
aF0.016842105263157894
aF0.87578947368421056
aa(lp2162
F0.044210526315789471
aF0.046315789473684213
aF0.89684210526315788
aF0.012631578947368421
aa(lp2163
F0.64210526315789473
aF0.22315789473684211
aF0.065263157894736842
aF0.069473684210526312
aa(lp2164
F0.021052631578947368
aF0.91789473684210521
aF0.025263157894736842
aF0.035789473684210524
aa(lp2165
F0.12421052631578948
aF0.74315789473684213
aF0.0042105263157894736
aF0.12842105263157894
aa(lp2166
F0.05473684210526316
aF0.3473684210526316
aF0.046315789473684213
aF0.55157894736842106
aasbsS'GABPA_MA0062.2'
p2167
(ipssm
pssm
p2168
(dp2169
g5
S'0.01'
p2170
sg7
Nsg8
S'100'
p2171
sg10
S'GABPA_MA0062.2'
p2172
sg12
(lp2173
(lp2174
F0.032355915065722954
aF0.77654196157735089
aF0.19009100101112233
aF0.0010111223458038423
aa(lp2175
F0.070778564206268962
aF0.92416582406471182
aF0.0040444893832153692
aF0.0010111223458038423
aa(lp2176
F0
aF0
aF0.99899091826437947
aF0.0010090817356205853
aa(lp2177
F0
aF0
aF1
aF0
aa(lp2178
F0.9979859013091642
aF0.0010070493454179255
aF0.0010070493454179255
aF0
aa(lp2179
F0.99597180261832829
aF0.002014098690835851
aF0
aF0.002014098690835851
aa(lp2180
F0.094758064516129031
aF0.032258064516129031
aF0.87298387096774188
aF0
aa(lp2181
F0.056508577194752774
aF0.26337033299697277
aF0.037336024217961658
aF0.64278506559031279
aa(lp2182
F0.15555555555555556
aF0.13838383838383839
aF0.60909090909090913
aF0.09696969696969697
aa(lp2183
F0.26666666666666666
aF0.26464646464646463
aF0.41919191919191917
aF0.049494949494949494
aa(lp2184
F0.23535353535353534
aF0.3606060606060606
aF0.22626262626262628
aF0.17777777777777778
aasbsS'NKX3-1_MA0124.1'
p2185
(ipssm
pssm
p2186
(dp2187
g5
S'0.01'
p2188
sg7
Nsg8
S'100'
p2189
sg10
S'NKX3-1_MA0124.1'
p2190
sg12
(lp2191
(lp2192
F0.65000000000000002
aF0.050000000000000003
aF0.14999999999999999
aF0.14999999999999999
aa(lp2193
F0
aF0.050000000000000003
aF0
aF0.94999999999999996
aa(lp2194
F1
aF0
aF0
aF0
aa(lp2195
F0
aF0.94999999999999996
aF0
aF0.050000000000000003
aa(lp2196
F0.050000000000000003
aF0
aF0
aF0.94999999999999996
aa(lp2197
F0.050000000000000003
aF0
aF0
aF0.94999999999999996
aa(lp2198
F0.94999999999999996
aF0
aF0.050000000000000003
aF0
aasbsS'PLAG1_MA0163.1'
p2199
(ipssm
pssm
p2200
(dp2201
g5
S'0.01'
p2202
sg7
Nsg8
S'100'
p2203
sg10
S'PLAG1_MA0163.1'
p2204
sg12
(lp2205
(lp2206
F0
aF0
aF1
aF0
aa(lp2207
F0.16666666666666666
aF0
aF0.77777777777777779
aF0.055555555555555552
aa(lp2208
F0
aF0
aF1
aF0
aa(lp2209
F0
aF0
aF0.94444444444444442
aF0.055555555555555552
aa(lp2210
F0
aF0.77777777777777779
aF0.22222222222222221
aF0
aa(lp2211
F0
aF0.83333333333333337
aF0.055555555555555552
aF0.1111111111111111
aa(lp2212
F0.22222222222222221
aF0.55555555555555558
aF0.055555555555555552
aF0.16666666666666666
aa(lp2213
F0.66666666666666663
aF0
aF0
aF0.33333333333333331
aa(lp2214
F0.61111111111111116
aF0.27777777777777779
aF0.1111111111111111
aF0
aa(lp2215
F0.1111111111111111
aF0
aF0.77777777777777779
aF0.1111111111111111
aa(lp2216
F0
aF0
aF1
aF0
aa(lp2217
F0
aF0
aF1
aF0
aa(lp2218
F0
aF0
aF0.88888888888888884
aF0.1111111111111111
aa(lp2219
F0.1111111111111111
aF0
aF0.88888888888888884
aF0
aasbsS'MIZF_MA0131.1'
p2220
(ipssm
pssm
p2221
(dp2222
g5
S'0.01'
p2223
sg7
Nsg8
S'100'
p2224
sg10
S'MIZF_MA0131.1'
p2225
sg12
(lp2226
(lp2227
F0.10000000000000001
aF0.29999999999999999
aF0.25
aF0.34999999999999998
aa(lp2228
F0.65000000000000002
aF0.050000000000000003
aF0
aF0.29999999999999999
aa(lp2229
F1
aF0
aF0
aF0
aa(lp2230
F0.10000000000000001
aF0.84999999999999998
aF0.050000000000000003
aF0
aa(lp2231
F0
aF0
aF0.94999999999999996
aF0.050000000000000003
aa(lp2232
F0
aF0.050000000000000003
aF0
aF0.94999999999999996
aa(lp2233
F0
aF0.94999999999999996
aF0
aF0.050000000000000003
aa(lp2234
F0
aF0.90000000000000002
aF0.10000000000000001
aF0
aa(lp2235
F0
aF0
aF0.94999999999999996
aF0.050000000000000003
aa(lp2236
F0.10000000000000001
aF0.65000000000000002
aF0.050000000000000003
aF0.20000000000000001
aasbsS'Mafb_MA0117.1'
p2237
(ipssm
pssm
p2238
(dp2239
g5
S'0.01'
p2240
sg7
Nsg8
S'100'
p2241
sg10
S'Mafb_MA0117.1'
p2242
sg12
(lp2243
(lp2244
F0
aF0
aF1
aF0
aa(lp2245
F0.066666666666666666
aF0.80000000000000004
aF0.066666666666666666
aF0.066666666666666666
aa(lp2246
F0
aF0.20000000000000001
aF0.066666666666666666
aF0.73333333333333328
aa(lp2247
F0.066666666666666666
aF0
aF0.80000000000000004
aF0.13333333333333333
aa(lp2248
F0.80000000000000004
aF0.13333333333333333
aF0
aF0.066666666666666666
aa(lp2249
F0.20000000000000001
aF0.53333333333333333
aF0.066666666666666666
aF0.20000000000000001
aa(lp2250
F0.20000000000000001
aF0.066666666666666666
aF0.46666666666666667
aF0.26666666666666666
aa(lp2251
F0.13333333333333333
aF0.33333333333333331
aF0.33333333333333331
aF0.20000000000000001
aasbsS'Spz1_MA0111.1'
p2252
(ipssm
pssm
p2253
(dp2254
g5
S'0.01'
p2255
sg7
Nsg8
S'100'
p2256
sg10
S'Spz1_MA0111.1'
p2257
sg12
(lp2258
(lp2259
F0.75
aF0
aF0.25
aF0
aa(lp2260
F0
aF0.16666666666666666
aF0.75
aF0.083333333333333329
aa(lp2261
F0.16666666666666666
aF0
aF0.83333333333333337
aF0
aa(lp2262
F0
aF0
aF0.91666666666666663
aF0.083333333333333329
aa(lp2263
F0.083333333333333329
aF0
aF0.083333333333333329
aF0.83333333333333337
aa(lp2264
F0.66666666666666663
aF0
aF0
aF0.33333333333333331
aa(lp2265
F0.5
aF0
aF0.16666666666666666
aF0.33333333333333331
aa(lp2266
F0.083333333333333329
aF0.75
aF0.16666666666666666
aF0
aa(lp2267
F0.83333333333333337
aF0
aF0.16666666666666666
aF0
aa(lp2268
F0
aF0.083333333333333329
aF0.75
aF0.16666666666666666
aa(lp2269
F0.16666666666666666
aF0.66666666666666663
aF0.16666666666666666
aF0
aasbsS'Zfx_MA0146.1'
p2270
(ipssm
pssm
p2271
(dp2272
g5
S'0.01'
p2273
sg7
Nsg8
S'100'
p2274
sg10
S'Zfx_MA0146.1'
p2275
sg12
(lp2276
(lp2277
F0.10504201680672269
aF0.37184873949579833
aF0.37605042016806722
aF0.14705882352941177
aa(lp2278
F0.12578616352201258
aF0.35639412997903563
aF0.36058700209643607
aF0.15723270440251572
aa(lp2279
F0.1903765690376569
aF0.31589958158995818
aF0.41631799163179917
aF0.077405857740585768
aa(lp2280
F0.15031315240083507
aF0.1022964509394572
aF0.62212943632567852
aF0.12526096033402923
aa(lp2281
F0.020790020790020791
aF0.61746361746361744
aF0.29937629937629939
aF0.062370062370062374
aa(lp2282
F0.012474012474012475
aF0.75259875259875264
aF0.0041580041580041582
aF0.23076923076923078
aa(lp2283
F0.062370062370062374
aF0.25987525987525989
aF0.3783783783783784
aF0.29937629937629939
aa(lp2284
F0.39708939708939711
aF0.32016632016632018
aF0.25155925155925157
aF0.031185031185031187
aa(lp2285
F0.018711018711018712
aF0.0041580041580041582
aF0.97505197505197505
aF0.0020790020790020791
aa(lp2286
F0
aF0.0062370062370062374
aF0.99168399168399168
aF0.0020790020790020791
aa(lp2287
F0.0020790020790020791
aF0.99792099792099798
aF0
aF0
aa(lp2288
F0
aF0.99792099792099798
aF0
aF0.0020790020790020791
aa(lp2289
F0
aF0.0041580041580041582
aF0
aF0.99584199584199584
aa(lp2290
F0.17463617463617465
aF0.25363825363825365
aF0.45530145530145533
aF0.11642411642411643
aasbsS'RORA_2_MA0072.1'
p2291
(ipssm
pssm
p2292
(dp2293
g5
S'0.01'
p2294
sg7
Nsg8
S'100'
p2295
sg10
S'RORA_2_MA0072.1'
p2296
sg12
(lp2297
(lp2298
F0.25
aF0.22222222222222221
aF0.22222222222222221
aF0.30555555555555558
aa(lp2299
F0.47222222222222221
aF0.055555555555555552
aF0.19444444444444445
aF0.27777777777777779
aa(lp2300
F0.41666666666666669
aF0
aF0.083333333333333329
aF0.5
aa(lp2301
F0.97222222222222221
aF0.027777777777777776
aF0
aF0
aa(lp2302
F0.63888888888888884
aF0
aF0
aF0.3611111111111111
aa(lp2303
F0.055555555555555552
aF0.33333333333333331
aF0.3611111111111111
aF0.25
aa(lp2304
F0
aF0
aF0
aF1
aa(lp2305
F0.77777777777777779
aF0
aF0.22222222222222221
aF0
aa(lp2306
F0
aF0
aF1
aF0
aa(lp2307
F0
aF0
aF1
aF0
aa(lp2308
F0
aF0
aF0
aF1
aa(lp2309
F0
aF1
aF0
aF0
aa(lp2310
F1
aF0
aF0
aF0
aa(lp2311
F0.41666666666666669
aF0.16666666666666666
aF0.27777777777777779
aF0.1388888888888889
aasbsS'Sox2_MA0143.1'
p2312
(ipssm
pssm
p2313
(dp2314
g5
S'0.01'
p2315
sg7
Nsg8
S'100'
p2316
sg10
S'Sox2_MA0143.1'
p2317
sg12
(lp2318
(lp2319
F0.040479760119940027
aF0.66566716641679158
aF0.13343328335832083
aF0.16041979010494753
aa(lp2320
F0.029895366218236172
aF0.67713004484304928
aF0.032884902840059793
aF0.26008968609865468
aa(lp2321
F0.48878923766816146
aF0.010463378176382661
aF0.0059790732436472349
aF0.49476831091180867
aa(lp2322
F0.0029895366218236174
aF0.014947683109118086
aF0.010463378176382661
aF0.97159940209267559
aa(lp2323
F0.020926756352765322
aF0.0014947683109118087
aF0.0089686098654708519
aF0.96860986547085204
aa(lp2324
F0.056801195814648729
aF0.12406576980568013
aF0.79073243647234681
aF0.028400597907324365
aa(lp2325
F0.12724550898203593
aF0.0059880239520958087
aF0.013473053892215569
aF0.8532934131736527
aa(lp2326
F0.09580838323353294
aF0.29041916167664672
aF0.11526946107784432
aF0.49850299401197606
aa(lp2327
F0.61261261261261257
aF0.18618618618618618
aF0.057057057057057055
aF0.14414414414414414
aa(lp2328
F0.03903903903903904
aF0.058558558558558557
aF0.03903903903903904
aF0.86336336336336339
aa(lp2329
F0.0406015037593985
aF0.11578947368421053
aF0.66766917293233086
aF0.17593984962406015
aa(lp2330
F0.048120300751879702
aF0.63458646616541359
aF0.12631578947368421
aF0.19097744360902255
aa(lp2331
F0.64156626506024095
aF0.061746987951807226
aF0.054216867469879519
aF0.24246987951807228
aa(lp2332
F0.5512048192771084
aF0.10090361445783133
aF0.23644578313253012
aF0.11144578313253012
aa(lp2333
F0.73042168674698793
aF0.09036144578313253
aF0.091867469879518077
aF0.087349397590361449
aasbsS'Pax2_MA0067.1'
p2334
(ipssm
pssm
p2335
(dp2336
g5
S'0.01'
p2337
sg7
Nsg8
S'100'
p2338
sg10
S'Pax2_MA0067.1'
p2339
sg12
(lp2340
(lp2341
F0.32258064516129031
aF0.22580645161290322
aF0.16129032258064516
aF0.29032258064516131
aa(lp2342
F0.22580645161290322
aF0.032258064516129031
aF0.67741935483870963
aF0.064516129032258063
aa(lp2343
F0.096774193548387094
aF0.064516129032258063
aF0
aF0.83870967741935487
aa(lp2344
F0
aF0.90322580645161288
aF0.032258064516129031
aF0.064516129032258063
aa(lp2345
F0.83870967741935487
aF0.032258064516129031
aF0.096774193548387094
aF0.032258064516129031
aa(lp2346
F0.064516129032258063
aF0.54838709677419351
aF0.032258064516129031
aF0.35483870967741937
aa(lp2347
F0.064516129032258063
aF0
aF0.61290322580645162
aF0.32258064516129031
aa(lp2348
F0.032258064516129031
aF0.35483870967741937
aF0.35483870967741937
aF0.25806451612903225
aasbsS'HNF1A_MA0046.1'
p2349
(ipssm
pssm
p2350
(dp2351
g5
S'0.01'
p2352
sg7
Nsg8
S'100'
p2353
sg10
S'HNF1A_MA0046.1'
p2354
sg12
(lp2355
(lp2356
F0.23809523809523808
aF0
aF0.66666666666666663
aF0.095238095238095233
aa(lp2357
F0.047619047619047616
aF0
aF0.95238095238095233
aF0
aa(lp2358
F0.047619047619047616
aF0
aF0
aF0.95238095238095233
aa(lp2359
F0.047619047619047616
aF0
aF0
aF0.95238095238095233
aa(lp2360
F0.95238095238095233
aF0
aF0
aF0.047619047619047616
aa(lp2361
F0.76190476190476186
aF0.095238095238095233
aF0.047619047619047616
aF0.095238095238095233
aa(lp2362
F0.047619047619047616
aF0
aF0
aF0.95238095238095233
aa(lp2363
F0.38095238095238093
aF0.095238095238095233
aF0.19047619047619047
aF0.33333333333333331
aa(lp2364
F0.66666666666666663
aF0
aF0.047619047619047616
aF0.2857142857142857
aa(lp2365
F0.095238095238095233
aF0
aF0
aF0.90476190476190477
aa(lp2366
F0
aF0.19047619047619047
aF0
aF0.80952380952380953
aa(lp2367
F0.61904761904761907
aF0.047619047619047616
aF0.14285714285714285
aF0.19047619047619047
aa(lp2368
F0.38095238095238093
aF0.38095238095238093
aF0.14285714285714285
aF0.095238095238095233
aa(lp2369
F0.23809523809523808
aF0.61904761904761907
aF0
aF0.14285714285714285
aasbsS'MZF1_1-4_MA0056.1'
p2370
(ipssm
pssm
p2371
(dp2372
g5
S'0.01'
p2373
sg7
Nsg8
S'100'
p2374
sg10
S'MZF1_1-4_MA0056.1'
p2375
sg12
(lp2376
(lp2377
F0.14999999999999999
aF0.25
aF0.20000000000000001
aF0.40000000000000002
aa(lp2378
F0
aF0
aF0.94999999999999996
aF0.050000000000000003
aa(lp2379
F0.10000000000000001
aF0
aF0.90000000000000002
aF0
aa(lp2380
F0
aF0
aF0.94999999999999996
aF0.050000000000000003
aa(lp2381
F0
aF0
aF1
aF0
aa(lp2382
F0.90000000000000002
aF0
aF0.10000000000000001
aF0
aasbsS'REST_MA0138.2'
p2383
(ipssm
pssm
p2384
(dp2385
g5
S'0.01'
p2386
sg7
Nsg8
S'100'
p2387
sg10
S'REST_MA0138.2'
p2388
sg12
(lp2389
(lp2390
F0.13262099308610936
aF0.10936517913262099
aF0.23004399748585794
aF0.52796983029541167
aa(lp2391
F0.036318096430807766
aF0.16844082654978085
aF0.09142141515341265
aF0.70381966186599876
aa(lp2392
F0.047589229805886035
aF0.85535378835316223
aF0.031308703819661866
aF0.065748278021289921
aa(lp2393
F0.90636704119850187
aF0.018726591760299626
aF0.058676654182272157
aF0.016229712858926344
aa(lp2394
F0.02119700748129676
aF0.027431421446384038
aF0.9451371571072319
aF0.0062344139650872821
aa(lp2395
F0.076012461059190031
aF0.60934579439252334
aF0.2012461059190031
aF0.11339563862928349
aa(lp2396
F0.98069738480697388
aF0.0043586550435865505
aF0.0074719800747198011
aF0.0074719800747198011
aa(lp2397
F0.0018679950186799503
aF0.98754669987546695
aF0.0074719800747198011
aF0.0031133250311332502
aa(lp2398
F0.021793275217932753
aF0.92216687422166876
aF0.012453300124533001
aF0.043586550435865505
aa(lp2399
F0.56884735202492209
aF0.12523364485981309
aF0.10093457943925234
aF0.20498442367601247
aa(lp2400
F0.13653366583541146
aF0.23379052369077308
aF0.077306733167082295
aF0.55236907730673312
aa(lp2401
F0.024314214463840397
aF0.0043640897755610969
aF0.96695760598503744
aF0.0043640897755610969
aa(lp2402
F0.012468827930174564
aF0.003117206982543641
aF0.98316708229426431
aF0.0012468827930174563
aa(lp2403
F0.87710542732376795
aF0.069868995633187769
aF0.021210230817217717
aF0.031815346225826574
aa(lp2404
F0.0081250000000000003
aF0.80000000000000004
aF0.145625
aF0.046249999999999999
aa(lp2405
F0.98375000000000001
aF0.0056249999999999998
aF0.0043750000000000004
aF0.0062500000000000003
aa(lp2406
F0.026348808030112924
aF0.0081555834378920951
aF0.95984943538268508
aF0.0056461731493099125
aa(lp2407
F0.12868801004394226
aF0.6321406151914627
aF0.11487758945386065
aF0.12429378531073447
aa(lp2408
F0.22989949748743718
aF0.019472361809045227
aF0.43216080402010049
aF0.31846733668341709
aa(lp2409
F0.13396226415094339
aF0.58679245283018866
aF0.20062893081761007
aF0.078616352201257858
aa(lp2410
F0.11257861635220126
aF0.70062893081761002
aF0.023270440251572325
aF0.16352201257861634
aasbsS'Klf4_MA0039.2'
p2411
(ipssm
pssm
p2412
(dp2413
g5
S'0.01'
p2414
sg7
Nsg8
S'100'
p2415
sg10
S'Klf4_MA0039.2'
p2416
sg12
(lp2417
(lp2418
F0.33856088560885611
aF0.018680811808118081
aF0.23570110701107011
aF0.40705719557195574
aa(lp2419
F0.020276497695852536
aF0.0020737327188940094
aF0.97626728110599081
aF0.0013824884792626728
aa(lp2420
F0.0032228360957642726
aF0.0029926335174953961
aF0.99079189686924496
aF0.0029926335174953961
aa(lp2421
F0.0032206119162640902
aF0.0082815734989648039
aF0.98481711525189786
aF0.0036806993328732458
aa(lp2422
F0.06369280294320534
aF0.44194067601747528
aF0.0025293170843872156
aF0.49183720395493219
aa(lp2423
F0.0050644567219152855
aF0.003453038674033149
aF0.98365561694290971
aF0.0078268876611418056
aa(lp2424
F0.0096707345153119965
aF0.018420446695832374
aF0.5017269168777343
aF0.47018190191112136
aa(lp2425
F0.060871570209822458
aF0.010606409960802398
aF0.89970025363154249
aF0.028821766197832603
aa(lp2426
F0.028399907642576772
aF0.030016162549064879
aF0.87485569152620646
aF0.066728238282151922
aa(lp2427
F0.058741905642923219
aF0.6609620721554117
aF0.06475485661424607
aF0.21554116558741906
aasbsS'REL_MA0101.1'
p2428
(ipssm
pssm
p2429
(dp2430
g5
S'0.01'
p2431
sg7
Nsg8
S'100'
p2432
sg10
S'REL_MA0101.1'
p2433
sg12
(lp2434
(lp2435
F0
aF0.29411764705882354
aF0.47058823529411764
aF0.23529411764705882
aa(lp2436
F0
aF0.058823529411764705
aF0.88235294117647056
aF0.058823529411764705
aa(lp2437
F0.058823529411764705
aF0
aF0.88235294117647056
aF0.058823529411764705
aa(lp2438
F0.29411764705882354
aF0.058823529411764705
aF0.52941176470588236
aF0.11764705882352941
aa(lp2439
F0.35294117647058826
aF0.29411764705882354
aF0.17647058823529413
aF0.17647058823529413
aa(lp2440
F0.29411764705882354
aF0.058823529411764705
aF0.058823529411764705
aF0.58823529411764708
aa(lp2441
F0.058823529411764705
aF0
aF0
aF0.94117647058823528
aa(lp2442
F0.11764705882352941
aF0
aF0
aF0.88235294117647056
aa(lp2443
F0
aF0.88235294117647056
aF0
aF0.11764705882352941
aa(lp2444
F0.058823529411764705
aF0.94117647058823528
aF0
aF0
aasbsS'FOXA1_MA0148.1'
p2445
(ipssm
pssm
p2446
(dp2447
g5
S'0.01'
p2448
sg7
Nsg8
S'100'
p2449
sg10
S'FOXA1_MA0148.1'
p2450
sg12
(lp2451
(lp2452
F0.014573991031390135
aF0.002242152466367713
aF0.002242152466367713
aF0.98094170403587444
aa(lp2453
F0.12094064949608063
aF0.0078387458006718928
aF0.86226203807390822
aF0.0089585666293393058
aa(lp2454
F0.0011173184357541898
aF0.00782122905027933
aF0.0055865921787709499
aF0.98547486033519549
aa(lp2455
F0.005580357142857143
aF0.0078125
aF0.026785714285714284
aF0.9598214285714286
aa(lp2456
F0.0066964285714285711
aF0.0033482142857142855
aF0.087053571428571425
aF0.9029017857142857
aa(lp2457
F0.53125
aF0.013392857142857142
aF0.4107142857142857
aF0.044642857142857144
aa(lp2458
F0.006688963210702341
aF0.89966555183946484
aF0.0055741360089186179
aF0.08807134894091416
aa(lp2459
F0.32441471571906355
aF0.11817168338907469
aF0.0055741360089186179
aF0.55183946488294311
aa(lp2460
F0.050223214285714288
aF0.4107142857142857
aF0.077008928571428575
aF0.46205357142857145
aa(lp2461
F0.42329227323628221
aF0.010078387458006719
aF0.026875699888017916
aF0.53975363941769317
aa(lp2462
F0.10089686098654709
aF0.14013452914798205
aF0.52242152466367708
aF0.23654708520179371
aasbsS'RXR::RAR_DR5_MA0159.1'
p2463
(ipssm
pssm
p2464
(dp2465
g5
S'0.01'
p2466
sg7
Nsg8
S'100'
p2467
sg10
S'RXR::RAR_DR5_MA0159.1'
p2468
sg12
(lp2469
(lp2470
F0.52173913043478259
aF0
aF0.47826086956521741
aF0
aa(lp2471
F0
aF0
aF1
aF0
aa(lp2472
F0.043478260869565216
aF0
aF0.56521739130434778
aF0.39130434782608697
aa(lp2473
F0
aF0
aF0.043478260869565216
aF0.95652173913043481
aa(lp2474
F0
aF0.78260869565217395
aF0.13043478260869565
aF0.086956521739130432
aa(lp2475
F0.95652173913043481
aF0
aF0.043478260869565216
aF0
aa(lp2476
F0.17391304347826086
aF0.30434782608695654
aF0.21739130434782608
aF0.30434782608695654
aa(lp2477
F0.21739130434782608
aF0.34782608695652173
aF0.39130434782608697
aF0.043478260869565216
aa(lp2478
F0.21739130434782608
aF0.17391304347826086
aF0.47826086956521741
aF0.13043478260869565
aa(lp2479
F0.56521739130434778
aF0.043478260869565216
aF0.30434782608695654
aF0.086956521739130432
aa(lp2480
F0.21739130434782608
aF0.2608695652173913
aF0.52173913043478259
aF0
aa(lp2481
F0.73913043478260865
aF0.13043478260869565
aF0.13043478260869565
aF0
aa(lp2482
F0.043478260869565216
aF0.043478260869565216
aF0.86956521739130432
aF0.043478260869565216
aa(lp2483
F0
aF0.043478260869565216
aF0.69565217391304346
aF0.2608695652173913
aa(lp2484
F0.086956521739130432
aF0.043478260869565216
aF0.13043478260869565
aF0.73913043478260865
aa(lp2485
F0.043478260869565216
aF0.73913043478260865
aF0.13043478260869565
aF0.086956521739130432
aa(lp2486
F0.91304347826086951
aF0
aF0.043478260869565216
aF0.043478260869565216
aasbsS'CTCF_MA0139.1'
p2487
(ipssm
pssm
p2488
(dp2489
g5
S'0.01'
p2490
sg7
Nsg8
S'100'
p2491
sg10
S'CTCF_MA0139.1'
p2492
sg12
(lp2493
(lp2494
F0.09529025191675794
aF0.31872946330777657
aF0.083242059145673605
aF0.50273822562979187
aa(lp2495
F0.18291347207009859
aF0.15881708652792989
aF0.45345016429353779
aF0.20481927710843373
aa(lp2496
F0.30777656078860899
aF0.053669222343921137
aF0.49178532311062434
aF0.14676889375684557
aa(lp2497
F0.061336254107338443
aF0.87623220153340631
aF0.023001095290251915
aF0.039430449069003289
aa(lp2498
F0.0087623220153340634
aF0.98904709748083242
aF0
aF0.0021905805038335158
aa(lp2499
F0.81489594742606786
aF0.014238773274917854
aF0.071193866374589271
aF0.099671412924424968
aa(lp2500
F0.043811610076670317
aF0.57831325301204817
aF0.36582694414019717
aF0.012048192771084338
aa(lp2501
F0.11732456140350878
aF0.47478070175438597
aF0.052631578947368418
aF0.35526315789473684
aa(lp2502
F0.93311403508771928
aF0.012061403508771929
aF0.035087719298245612
aF0.019736842105263157
aa(lp2503
F0.0054884742041712408
aF0
aF0.99121844127332603
aF0.0032930845225027441
aa(lp2504
F0.36553238199780463
aF0.0032930845225027441
aF0.62129527991218436
aF0.0098792535675082324
aa(lp2505
F0.059275521405049394
aF0.013172338090010977
aF0.55323819978046107
aF0.3743139407244786
aa(lp2506
F0.013186813186813187
aF0
aF0.97802197802197799
aF0.0087912087912087912
aa(lp2507
F0.061538461538461542
aF0.0087912087912087912
aF0.85164835164835162
aF0.078021978021978022
aa(lp2508
F0.11441144114411442
aF0.80638063806380633
aF0.0055005500550055009
aF0.073707370737073702
aa(lp2509
F0.40924092409240925
aF0.014301430143014302
aF0.55775577557755773
aF0.018701870187018702
aa(lp2510
F0.090308370044052858
aF0.53083700440528636
aF0.33810572687224671
aF0.040748898678414094
aa(lp2511
F0.1288546255506608
aF0.35462555066079293
aF0.08039647577092511
aF0.43612334801762115
aa(lp2512
F0.44273127753303965
aF0.19933920704845814
aF0.29295154185022027
aF0.064977973568281944
aasbsS'Pax6_MA0069.1'
p2513
(ipssm
pssm
p2514
(dp2515
g5
S'0.01'
p2516
sg7
Nsg8
S'100'
p2517
sg10
S'Pax6_MA0069.1'
p2518
sg12
(lp2519
(lp2520
F0.046511627906976744
aF0.093023255813953487
aF0.093023255813953487
aF0.76744186046511631
aa(lp2521
F0.046511627906976744
aF0.046511627906976744
aF0
aF0.90697674418604646
aa(lp2522
F0.093023255813953487
aF0.60465116279069764
aF0.023255813953488372
aF0.27906976744186046
aa(lp2523
F0.90697674418604646
aF0.046511627906976744
aF0.023255813953488372
aF0.023255813953488372
aa(lp2524
F0.069767441860465115
aF0.79069767441860461
aF0.023255813953488372
aF0.11627906976744186
aa(lp2525
F0.023255813953488372
aF0
aF0.95348837209302328
aF0.023255813953488372
aa(lp2526
F0.023255813953488372
aF0.86046511627906974
aF0.093023255813953487
aF0.023255813953488372
aa(lp2527
F0.48837209302325579
aF0.046511627906976744
aF0.046511627906976744
aF0.41860465116279072
aa(lp2528
F0.023255813953488372
aF0.093023255813953487
aF0.023255813953488372
aF0.86046511627906974
aa(lp2529
F0.046511627906976744
aF0.32558139534883723
aF0.58139534883720934
aF0.046511627906976744
aa(lp2530
F0.83720930232558144
aF0
aF0.13953488372093023
aF0.023255813953488372
aa(lp2531
F0.2558139534883721
aF0.2558139534883721
aF0.30232558139534882
aF0.18604651162790697
aa(lp2532
F0.023255813953488372
aF0.11627906976744186
aF0.069767441860465115
aF0.79069767441860461
aa(lp2533
F0.023255813953488372
aF0
aF0.39534883720930231
aF0.58139534883720934
aasbsS'HNF4A_MA0114.1'
p2534
(ipssm
pssm
p2535
(dp2536
g5
S'0.01'
p2537
sg7
Nsg8
S'100'
p2538
sg10
S'HNF4A_MA0114.1'
p2539
sg12
(lp2540
(lp2541
F0.41791044776119401
aF0.1044776119402985
aF0.40298507462686567
aF0.074626865671641784
aa(lp2542
F0.029850746268656716
aF0.029850746268656716
aF0.83582089552238803
aF0.1044776119402985
aa(lp2543
F0.17910447761194029
aF0.059701492537313432
aF0.52238805970149249
aF0.23880597014925373
aa(lp2544
F0.074626865671641784
aF0.34328358208955223
aF0.29850746268656714
aF0.28358208955223879
aa(lp2545
F0.044776119402985072
aF0.76119402985074625
aF0.059701492537313432
aF0.13432835820895522
aa(lp2546
F0.88059701492537312
aF0.014925373134328358
aF0.044776119402985072
aF0.059701492537313432
aa(lp2547
F0.79104477611940294
aF0.029850746268656716
aF0.14925373134328357
aF0.029850746268656716
aa(lp2548
F0.83582089552238803
aF0.014925373134328358
aF0.11940298507462686
aF0.029850746268656716
aa(lp2549
F0.059701492537313432
aF0.059701492537313432
aF0.86567164179104472
aF0.014925373134328358
aa(lp2550
F0.089552238805970144
aF0.029850746268656716
aF0.4925373134328358
aF0.38805970149253732
aa(lp2551
F0.044776119402985072
aF0.32835820895522388
aF0.16417910447761194
aF0.46268656716417911
aa(lp2552
F0.059701492537313432
aF0.73134328358208955
aF0.074626865671641784
aF0.13432835820895522
aa(lp2553
F0.62686567164179108
aF0.1044776119402985
aF0.14925373134328357
aF0.11940298507462686
aasbsS'Stat3_MA0144.1'
p2554
(ipssm
pssm
p2555
(dp2556
g5
S'0.01'
p2557
sg7
Nsg8
S'100'
p2558
sg10
S'Stat3_MA0144.1'
p2559
sg12
(lp2560
(lp2561
F0.032626427406199018
aF0.030995106035889071
aF0.040783034257748776
aF0.89559543230016314
aa(lp2562
F0.021207177814029365
aF0.016313213703099509
aF0.21044045676998369
aF0.75203915171288749
aa(lp2563
F0.061990212071778142
aF0.90048939641109293
aF0.01468189233278956
aF0.022838499184339316
aa(lp2564
F0.0097879282218597055
aF0.88254486133768351
aF0.0016313213703099511
aF0.10603588907014681
aa(lp2565
F0.52365415986949426
aF0.034257748776508973
aF0.24143556280587275
aF0.20065252854812399
aa(lp2566
F0.013050570962479609
aF0
aF0.98694942903752036
aF0
aa(lp2567
F0.0097879282218597055
aF0.0032626427406199023
aF0.965742251223491
aF0.021207177814029365
aa(lp2568
F0.95432300163132133
aF0.034257748776508973
aF0.011419249592169658
aF0
aa(lp2569
F0.98858075040783033
aF0.0016313213703099511
aF0.0081566068515497546
aF0.0016313213703099511
aa(lp2570
F0.31158238172920066
aF0.024469820554649267
aF0.64110929853181076
aF0.022838499184339316
aasbsS'MZF1_5-13_MA0057.1'
p2571
(ipssm
pssm
p2572
(dp2573
g5
S'0.01'
p2574
sg7
Nsg8
S'100'
p2575
sg10
S'MZF1_5-13_MA0057.1'
p2576
sg12
(lp2577
(lp2578
F0.0625
aF0.25
aF0.4375
aF0.25
aa(lp2579
F0.125
aF0
aF0.4375
aF0.4375
aa(lp2580
F0.9375
aF0.0625
aF0
aF0
aa(lp2581
F0
aF0
aF0.6875
aF0.3125
aa(lp2582
F0
aF0
aF0.9375
aF0.0625
aa(lp2583
F0
aF0.125
aF0.875
aF0
aa(lp2584
F0
aF0
aF0.875
aF0.125
aa(lp2585
F0.1875
aF0.0625
aF0.5
aF0.25
aa(lp2586
F0.625
aF0
aF0.25
aF0.125
aa(lp2587
F0.5
aF0.125
aF0.25
aF0.125
aasbsS'Myf_MA0055.1'
p2588
(ipssm
pssm
p2589
(dp2590
g5
S'0.01'
p2591
sg7
Nsg8
S'100'
p2592
sg10
S'Myf_MA0055.1'
p2593
sg12
(lp2594
(lp2595
F0.4375
aF0.5
aF0.0625
aF0
aa(lp2596
F0.5625
aF0
aF0.4375
aF0
aa(lp2597
F0.25
aF0.125
aF0.625
aF0
aa(lp2598
F0
aF0.9375
aF0.0625
aF0
aa(lp2599
F1
aF0
aF0
aF0
aa(lp2600
F0.4375
aF0
aF0.5625
aF0
aa(lp2601
F0
aF0.9375
aF0.0625
aF0
aa(lp2602
F0.375
aF0
aF0
aF0.625
aa(lp2603
F0
aF0
aF1
aF0
aa(lp2604
F0
aF0.625
aF0.375
aF0
aa(lp2605
F0.375
aF0
aF0
aF0.625
aa(lp2606
F0
aF0
aF1
aF0
aasbsS'FOXL1_MA0033.1'
p2607
(ipssm
pssm
p2608
(dp2609
g5
S'0.01'
p2610
sg7
Nsg8
S'100'
p2611
sg10
S'FOXL1_MA0033.1'
p2612
sg12
(lp2613
(lp2614
F0.30434782608695654
aF0.043478260869565216
aF0.17391304347826086
aF0.47826086956521741
aa(lp2615
F0.43478260869565216
aF0.17391304347826086
aF0.086956521739130432
aF0.30434782608695654
aa(lp2616
F0.2608695652173913
aF0.13043478260869565
aF0.2608695652173913
aF0.34782608695652173
aa(lp2617
F0.56521739130434778
aF0.17391304347826086
aF0.17391304347826086
aF0.086956521739130432
aa(lp2618
F0.17391304347826086
aF0.43478260869565216
aF0.086956521739130432
aF0.30434782608695654
aa(lp2619
F0.91304347826086951
aF0
aF0.086956521739130432
aF0
aa(lp2620
F0
aF0.086956521739130432
aF0
aF0.91304347826086951
aa(lp2621
F0.95652173913043481
aF0.043478260869565216
aF0
aF0
aasbsS'Evi1_MA0029.1'
p2622
(ipssm
pssm
p2623
(dp2624
g5
S'0.01'
p2625
sg7
Nsg8
S'100'
p2626
sg10
S'Evi1_MA0029.1'
p2627
sg12
(lp2628
(lp2629
F0.51851851851851849
aF0.07407407407407407
aF0.22222222222222221
aF0.18518518518518517
aa(lp2630
F0.7407407407407407
aF0.037037037037037035
aF0.07407407407407407
aF0.14814814814814814
aa(lp2631
F0
aF0.037037037037037035
aF0.92592592592592593
aF0.037037037037037035
aa(lp2632
F1
aF0
aF0
aF0
aa(lp2633
F0.037037037037037035
aF0.37037037037037035
aF0
aF0.59259259259259256
aa(lp2634
F1
aF0
aF0
aF0
aa(lp2635
F0.96296296296296291
aF0
aF0.037037037037037035
aF0
aa(lp2636
F0
aF0
aF1
aF0
aa(lp2637
F1
aF0
aF0
aF0
aa(lp2638
F0
aF0.1111111111111111
aF0
aF0.88888888888888884
aa(lp2639
F0.88888888888888884
aF0.037037037037037035
aF0
aF0.07407407407407407
aa(lp2640
F0.85185185185185186
aF0
aF0.14814814814814814
aF0
aa(lp2641
F0.22222222222222221
aF0.25925925925925924
aF0.25925925925925924
aF0.25925925925925924
aa(lp2642
F0.55555555555555558
aF0.22222222222222221
aF0.1111111111111111
aF0.1111111111111111
aasbsS'GATA3_MA0037.1'
p2643
(ipssm
pssm
p2644
(dp2645
g5
S'0.01'
p2646
sg7
Nsg8
S'100'
p2647
sg10
S'GATA3_MA0037.1'
p2648
sg12
(lp2649
(lp2650
F0.3968253968253968
aF0.22222222222222221
aF0.063492063492063489
aF0.31746031746031744
aa(lp2651
F0
aF0.015873015873015872
aF0.98412698412698407
aF0
aa(lp2652
F0.96825396825396826
aF0
aF0.015873015873015872
aF0.015873015873015872
aa(lp2653
F0
aF0
aF0.079365079365079361
aF0.92063492063492058
aa(lp2654
F0.61904761904761907
aF0.015873015873015872
aF0.063492063492063489
aF0.30158730158730157
aa(lp2655
F0.23809523809523808
aF0.047619047619047616
aF0.58730158730158732
aF0.12698412698412698
aasbsS'Arnt_MA0004.1'
p2656
(ipssm
pssm
p2657
(dp2658
g5
S'0.01'
p2659
sg7
Nsg8
S'100'
p2660
sg10
S'Arnt_MA0004.1'
p2661
sg12
(lp2662
(lp2663
F0.20000000000000001
aF0.80000000000000004
aF0
aF0
aa(lp2664
F0.94999999999999996
aF0
aF0.050000000000000003
aF0
aa(lp2665
F0
aF1
aF0
aF0
aa(lp2666
F0
aF0
aF1
aF0
aa(lp2667
F0
aF0
aF0
aF1
aa(lp2668
F0
aF0
aF1
aF0
aasbsS'EBF1_MA0154.1'
p2669
(ipssm
pssm
p2670
(dp2671
g5
S'0.01'
p2672
sg7
Nsg8
S'100'
p2673
sg10
S'EBF1_MA0154.1'
p2674
sg12
(lp2675
(lp2676
F0.44
aF0.35999999999999999
aF0.080000000000000002
aF0.12
aa(lp2677
F0
aF0.88
aF0
aF0.12
aa(lp2678
F0.040000000000000001
aF0.64000000000000001
aF0.040000000000000001
aF0.28000000000000003
aa(lp2679
F0.080000000000000002
aF0.80000000000000004
aF0
aF0.12
aa(lp2680
F0.44
aF0.35999999999999999
aF0
aF0.20000000000000001
aa(lp2681
F0.64000000000000001
aF0.040000000000000001
aF0.20000000000000001
aF0.12
aa(lp2682
F0
aF0
aF1
aF0
aa(lp2683
F0.080000000000000002
aF0
aF0.92000000000000004
aF0
aa(lp2684
F0
aF0
aF1
aF0
aa(lp2685
F0.83999999999999997
aF0
aF0.16
aF0
aasbs.